(iaperiot.llparser
Parser
p1
(dp2
S'table'
p3
(iaperiot.llparser
ParsingTable
p4
(dp5
S'non_terminal_first_sets'
p6
(dp7
(iaperiot.cfgs
NonTerminal
p8
(dp9
S'sym'
p10
S'CALCULATED_5'
p11
sbc__builtin__
set
p12
((lp13
(iaperiot.cfgs
Terminal
p14
(dp15
g10
(iaperiot.lexer
Bracket
p16
(dp17
S'end_col'
p18
NsS'string'
p19
S'('
sS'symbolic_name'
p20
S'lpar'
p21
sS'pos'
p22
(NNNtp23
sS'value'
p24
S'('
sS'linenum'
p25
NsS'start_col'
p26
Nsbsba(iaperiot.cfgs
Terminal
p27
(dp28
g10
(iaperiot.lexer
Operator
p29
(dp30
g18
Nsg19
S'$'
sg20
S'absolute'
p31
sg22
(NNNtp32
sg24
S'$'
sg25
Nsg26
Nsbsba(iaperiot.cfgs
EmptyString
p33
(dp34
g10
(iaperiot.lexer
Token
p35
(dp36
g18
Nsg19
S'<the empty string>'
p37
sg20
g37
sg22
(NNNtp38
sg24
g37
sg25
Nsg26
NsbsbatRp39
s(iaperiot.cfgs
NonTerminal
p40
(dp41
g10
S'CALCULATED'
p42
sbg12
((lp43
(iaperiot.cfgs
Terminal
p44
(dp45
g10
caperiot.lexer
Identifier
p46
sba(iaperiot.cfgs
Terminal
p47
(dp48
g10
g29
sbatRp49
s(iaperiot.cfgs
NonTerminal
p50
(dp51
g10
S'ARGLIST_11'
p52
sbg12
((lp53
(iaperiot.cfgs
Terminal
p54
(dp55
g10
(iaperiot.lexer
Operator
p56
(dp57
g18
Nsg19
S','
sg20
S'comma'
p58
sg22
(NNNtp59
sg24
S','
sg25
Nsg26
Nsbsba(iaperiot.cfgs
EmptyString
p60
(dp61
g10
g35
sbatRp62
s(iaperiot.cfgs
NonTerminal
p63
(dp64
g10
S'LIST'
p65
sbg12
((lp66
(iaperiot.cfgs
Terminal
p67
(dp68
g10
g46
sbatRp69
s(iaperiot.cfgs
NonTerminal
p70
(dp71
g10
S'CALCULATED_4_15'
p72
sbg12
((lp73
(iaperiot.cfgs
Terminal
p74
(dp75
g10
g29
sba(iaperiot.cfgs
EmptyString
p76
(dp77
g10
g35
sbatRp78
s(iaperiot.cfgs
NonTerminal
p79
(dp80
g10
S'LIST_10_12_25'
p81
sbg12
((lp82
(iaperiot.cfgs
Terminal
p83
(dp84
g10
(iaperiot.lexer
Operator
p85
(dp86
g18
Nsg19
S';'
sg20
S'semicolon'
p87
sg22
(NNNtp88
sg24
S';'
sg25
Nsg26
Nsbsba(iaperiot.cfgs
EmptyString
p89
(dp90
g10
g35
sbatRp91
s(iaperiot.cfgs
NonTerminal
p92
(dp93
g10
S'TERM_0'
p94
sbg12
((lp95
(iaperiot.cfgs
Terminal
p96
(dp97
g10
(iaperiot.lexer
Operator
p98
(dp99
g18
Nsg19
S'*'
sg20
S'times'
p100
sg22
(NNNtp101
sg24
S'*'
sg25
Nsg26
Nsbsba(iaperiot.cfgs
Terminal
p102
(dp103
g10
(iaperiot.lexer
Operator
p104
(dp105
g18
Nsg19
S'/'
sg20
S'div'
p106
sg22
(NNNtp107
sg24
S'/'
sg25
Nsg26
Nsbsba(iaperiot.cfgs
EmptyString
p108
(dp109
g10
g35
sbatRp110
s(iaperiot.cfgs
NonTerminal
p111
(dp112
g10
S'LIST_10_12_25_37'
p113
sbg12
((lp114
g67
a(iaperiot.cfgs
EmptyString
p115
(dp116
g10
g35
sbatRp117
s(iaperiot.cfgs
NonTerminal
p118
(dp119
g10
S'ARG'
p120
sbg12
((lp121
g47
ag44
a(iaperiot.cfgs
Terminal
p122
(dp123
g10
g16
sba(iaperiot.cfgs
Terminal
p124
(dp125
g10
(iaperiot.lexer
Operator
p126
(dp127
g18
Nsg19
S'-'
sg20
S'minus'
p128
sg22
(NNNtp129
sg24
S'-'
sg25
Nsg26
Nsbsba(iaperiot.cfgs
Terminal
p130
(dp131
g10
caperiot.lexer
NumberLiteral
p132
sbatRp133
s(iaperiot.cfgs
NonTerminal
p134
(dp135
g10
S'EXPR_3'
p136
sbg12
((lp137
(iaperiot.cfgs
Terminal
p138
(dp139
g10
(iaperiot.lexer
Operator
p140
(dp141
g18
Nsg19
S'+'
sg20
S'plus'
p142
sg22
(NNNtp143
sg24
S'+'
sg25
Nsg26
Nsbsba(iaperiot.cfgs
Terminal
p144
(dp145
g10
g126
sba(iaperiot.cfgs
EmptyString
p146
(dp147
g10
g35
sbatRp148
s(iaperiot.cfgs
NonTerminal
p149
(dp150
g10
S'ARG_1'
p151
sbg12
((lp152
(iaperiot.cfgs
Terminal
p153
(dp154
g10
(iaperiot.lexer
Operator
p155
(dp156
g18
Nsg19
S':'
sg20
S'colon'
p157
sg22
(NNNtp158
sg24
S':'
sg25
Nsg26
Nsbsba(iaperiot.cfgs
EmptyString
p159
(dp160
g10
g35
sbatRp161
s(iaperiot.cfgs
NonTerminal
p162
(dp163
g10
S'FACTOR'
p164
sbg12
((lp165
g47
ag44
ag130
ag122
ag124
atRp166
ssS'first_sets'
p167
(g7
(lp168
g12
((lp169
g76
atRp170
ag12
((lp171
g74
atRp172
ag12
((lp173
g47
atRp174
ag12
((lp175
g44
atRp176
ag12
((lp177
g54
atRp178
ag12
((lp179
g60
atRp180
ag12
((lp181
g89
atRp182
ag12
((lp183
g83
atRp184
ag12
((lp185
g27
atRp186
ag12
((lp187
g33
atRp188
ag12
((lp189
g14
atRp190
ag12
((lp191
g130
atRp192
ag12
((lp193
g122
atRp194
ag12
((lp195
g124
atRp196
ag12
((lp197
g44
ag47
atRp198
ag12
((lp199
g67
atRp200
ag12
((lp201
g115
atRp202
ag12
((lp203
g67
atRp204
ag12
((lp205
g146
atRp206
ag12
((lp207
g138
atRp208
ag12
((lp209
g144
atRp210
ag12
((lp211
g108
atRp212
ag12
((lp213
g96
atRp214
ag12
((lp215
g102
atRp216
ag12
((lp217
g44
ag47
atRp218
ag12
((lp219
g47
ag122
ag124
ag44
ag130
atRp220
ag12
((lp221
g153
atRp222
ag12
((lp223
g159
atRp224
atp225
sS'cfg'
p226
(iaperiot.cfgs
CFG
p227
(dp228
S'package_name'
p229
S'traxter_cfg'
p230
sS'rules'
p231
(lp232
(iaperiot.cfgs
Rule
p233
(dp234
S'action'
p235
(iaperiot.cfgs
PlamRuleAction
p236
(dp237
S'body'
p238
(iaperiot.plambda.plambda_ast
LambdaAbstraction
p239
(dp240
g238
(iaperiot.plambda.plambda_ast
LambdaAbstraction
p241
(dp242
g238
(iaperiot.plambda.plambda_ast
Application
p243
(dp244
S'function'
p245
(iaperiot.plambda.plambda_ast
LambdaAbstraction
p246
(dp247
g238
(iaperiot.plambda.plambda_ast
Constant
p248
(dp249
g24
S"parse_cellref(['cellref','ABS',x1.symbolic_name])"
p250
sbsS'params'
p251
(lp252
S'x0'
p253
aS'x1'
p254
asbsS'args'
p255
(lp256
(iaperiot.plambda.plambda_ast
Variable
p257
(dp258
S'name'
p259
S'z30'
p260
sba(iaperiot.plambda.plambda_ast
Variable
p261
(dp262
g259
S'_yyy'
p263
sbasbsg251
(lp264
g260
asbsg251
(lp265
g263
asbsS'term'
p266
(iaperiot.plambda.plambda_ast
LambdaAbstraction
p267
(dp268
g238
g239
sg251
(lp269
sbsg259
S'calculated_4_15'
p270
sg255
g269
sS'rule'
p271
NsS'crosslinks'
p272
(lp273
(I1
S'NonTerminal(CALCULATED_4_15) ->  EmptyStringSymbol : calculated_4_15'
tp274
asS'__name__'
p275
g270
sS'ocurrences'
p276
I1
sbsS'rhs'
p277
(lp278
g76
asS'lhs'
p279
(iaperiot.cfgs
NonTerminal
p280
(dp281
g10
g72
sbsba(iaperiot.cfgs
Rule
p282
(dp283
g235
(iaperiot.cfgs
PlamRuleAction
p284
(dp285
g238
(iaperiot.plambda.plambda_ast
LambdaAbstraction
p286
(dp287
g238
(iaperiot.plambda.plambda_ast
LambdaAbstraction
p288
(dp289
g238
(iaperiot.plambda.plambda_ast
Application
p290
(dp291
g245
(iaperiot.plambda.plambda_ast
LambdaAbstraction
p292
(dp293
g238
(iaperiot.plambda.plambda_ast
Constant
p294
(dp295
g24
S"parse_cellref(['cellref','ABS',x1.symbolic_name,'ABS',str(int(x3))])"
p296
sbsg251
(lp297
S'x0'
p298
aS'x1'
p299
aS'x2'
p300
aS'x3'
p301
asbsg255
(lp302
(iaperiot.plambda.plambda_ast
Variable
p303
(dp304
g259
S'z6'
p305
sba(iaperiot.plambda.plambda_ast
Variable
p306
(dp307
g259
S'z7'
p308
sba(iaperiot.plambda.plambda_ast
Variable
p309
(dp310
g259
S'x0'
p311
sba(iaperiot.plambda.plambda_ast
Variable
p312
(dp313
g259
S'x1'
p314
sbasbsg251
(lp315
g305
asbsg251
(lp316
g308
asbsg266
(iaperiot.plambda.plambda_ast
LambdaAbstraction
p317
(dp318
g238
g286
sg251
(lp319
S'x0'
p320
aS'x1'
p321
asbsg259
S'expansion_53'
p322
sg255
g319
sg271
Nsg272
(lp323
(I2
S"NonTerminal(CALCULATED_4_15) ->  Terminal(Operator('$', 'absolute')) Terminal(NumberLiteral) : expansion_53"
tp324
asg275
g322
sg276
I1
sbsg277
(lp325
g74
a(iaperiot.cfgs
Terminal
p326
(dp327
g10
g132
sbasg279
(iaperiot.cfgs
NonTerminal
p328
(dp329
g10
g72
sbsba(iaperiot.cfgs
Rule
p330
(dp331
g235
(iaperiot.cfgs
PlamRuleAction
p332
(dp333
g238
(iaperiot.plambda.plambda_ast
Application
p334
(dp335
g245
(iaperiot.plambda.plambda_ast
Application
p336
(dp337
g245
(iaperiot.plambda.plambda_ast
Variable
p338
(dp339
g259
S'x2'
p340
sbsg255
(lp341
(iaperiot.plambda.plambda_ast
Variable
p342
(dp343
g259
S'x1'
p344
sbasbsg255
(lp345
(iaperiot.plambda.plambda_ast
Variable
p346
(dp347
g259
S'x0'
p348
sbasbsg266
(iaperiot.plambda.plambda_ast
LambdaAbstraction
p349
(dp350
g238
g334
sg251
(lp351
S'x0'
p352
aS'x1'
p353
aS'x2'
p354
asbsg259
S'expansion_37'
p355
sg255
g351
sg271
Nsg272
(lp356
(I3
S"NonTerminal(CALCULATED) ->  Terminal(Operator('$', 'absolute')) Terminal(Identifier) NonTerminal(CALCULATED_4_15) : expansion_37"
tp357
asg275
g355
sg276
I1
sbsg277
(lp358
g47
a(iaperiot.cfgs
Terminal
p359
(dp360
g10
g46
sba(iaperiot.cfgs
NonTerminal
p361
(dp362
g10
g72
sbasg279
(iaperiot.cfgs
NonTerminal
p363
(dp364
g10
g42
sbsba(iaperiot.cfgs
Rule
p365
(dp366
g235
(iaperiot.cfgs
PlamRuleAction
p367
(dp368
g238
(iaperiot.plambda.plambda_ast
Application
p369
(dp370
g245
(iaperiot.plambda.plambda_ast
Variable
p371
(dp372
g259
S'continuation'
p373
sbsg255
(lp374
(iaperiot.plambda.plambda_ast
Variable
p375
(dp376
g259
S'first'
p377
sbasbsg266
(iaperiot.plambda.plambda_ast
LambdaAbstraction
p378
(dp379
g238
g369
sg251
(lp380
g377
ag373
asbsg259
S'new_calculated_action_2'
p381
sg255
g380
sg271
Nsg272
(lp382
(I4
S'NonTerminal(CALCULATED) ->  Terminal(Identifier) NonTerminal(CALCULATED_5) : new_calculated_action_2'
tp383
asg275
g381
sg276
I1
sbsg277
(lp384
g44
a(iaperiot.cfgs
NonTerminal
p385
(dp386
g10
g11
sbasg279
(iaperiot.cfgs
NonTerminal
p387
(dp388
g10
g42
sbsba(iaperiot.cfgs
Rule
p389
(dp390
g235
(iaperiot.cfgs
PlamRuleAction
p391
(dp392
g238
(iaperiot.plambda.plambda_ast
LambdaAbstraction
p393
(dp394
g238
(iaperiot.plambda.plambda_ast
Application
p395
(dp396
g245
(iaperiot.plambda.plambda_ast
LambdaAbstraction
p397
(dp398
g238
(iaperiot.plambda.plambda_ast
Constant
p399
(dp400
g24
S'[x0]+x2'
p401
sbsg251
(lp402
S'x0'
p403
aS'x1'
p404
aS'x2'
p405
asbsg255
(lp406
(iaperiot.plambda.plambda_ast
Variable
p407
(dp408
g259
S'z1'
p409
sba(iaperiot.plambda.plambda_ast
Variable
p410
(dp411
g259
S'x0'
p412
sba(iaperiot.plambda.plambda_ast
Application
p413
(dp414
g245
(iaperiot.plambda.plambda_ast
Variable
p415
(dp416
g259
S'x2'
p417
sbsg255
(lp418
(iaperiot.plambda.plambda_ast
Variable
p419
(dp420
g259
S'x1'
p421
sbasbasbsg251
(lp422
g409
asbsg266
(iaperiot.plambda.plambda_ast
LambdaAbstraction
p423
(dp424
g238
g393
sg251
(lp425
S'x0'
p426
aS'x1'
p427
aS'x2'
p428
asbsg259
S'expansion_54'
p429
sg255
g425
sg271
Nsg272
(lp430
(I5
S"NonTerminal(ARGLIST_11) ->  Terminal(Operator(',', 'comma')) NonTerminal(ARG) NonTerminal(ARGLIST_11) : expansion_54"
tp431
asg275
g429
sg276
I1
sbsg277
(lp432
g54
a(iaperiot.cfgs
NonTerminal
p433
(dp434
g10
g120
sba(iaperiot.cfgs
NonTerminal
p435
(dp436
g10
g52
sbasg279
(iaperiot.cfgs
NonTerminal
p437
(dp438
g10
g52
sbsba(iaperiot.cfgs
Rule
p439
(dp440
g235
(iaperiot.cfgs
PlamRuleAction
p441
(dp442
g238
(iaperiot.plambda.plambda_ast
LambdaAbstraction
p443
(dp444
g238
(iaperiot.plambda.plambda_ast
Application
p445
(dp446
g245
(iaperiot.plambda.plambda_ast
LambdaAbstraction
p447
(dp448
g238
(iaperiot.plambda.plambda_ast
Constant
p449
(dp450
g24
S'[x0]'
p451
sbsg251
(lp452
S'x0'
p453
asbsg255
(lp454
(iaperiot.plambda.plambda_ast
Variable
p455
(dp456
g259
g263
sbasbsg251
(lp457
g263
asbsg266
(iaperiot.plambda.plambda_ast
LambdaAbstraction
p458
(dp459
g238
g443
sg251
(lp460
sbsg259
S'arglist_11_1'
p461
sg255
g460
sg271
Nsg272
(lp462
(I6
S'NonTerminal(ARGLIST_11) ->  EmptyStringSymbol : arglist_11_1'
tp463
asg275
g461
sg276
I1
sbsg277
(lp464
g60
asg279
(iaperiot.cfgs
NonTerminal
p465
(dp466
g10
g52
sbsba(iaperiot.cfgs
Rule
p467
(dp468
g235
(iaperiot.cfgs
PlamRuleAction
p469
(dp470
g238
(iaperiot.plambda.plambda_ast
LambdaAbstraction
p471
(dp472
g238
(iaperiot.plambda.plambda_ast
LambdaAbstraction
p473
(dp474
g238
(iaperiot.plambda.plambda_ast
LambdaAbstraction
p475
(dp476
g238
(iaperiot.plambda.plambda_ast
Application
p477
(dp478
g245
(iaperiot.plambda.plambda_ast
LambdaAbstraction
p479
(dp480
g238
(iaperiot.plambda.plambda_ast
Constant
p481
(dp482
g24
S'[x0]'
p483
sbsg251
(lp484
S'x0'
p485
asbsg255
(lp486
(iaperiot.plambda.plambda_ast
Application
p487
(dp488
g245
(iaperiot.plambda.plambda_ast
LambdaAbstraction
p489
(dp490
g238
(iaperiot.plambda.plambda_ast
Constant
p491
(dp492
g24
S'(x0,x2)'
p493
sbsg251
(lp494
S'x0'
p495
aS'x1'
p496
aS'x2'
p497
asbsg255
(lp498
(iaperiot.plambda.plambda_ast
Variable
p499
(dp500
g259
S'z8'
p501
sba(iaperiot.plambda.plambda_ast
Variable
p502
(dp503
g259
S'z39'
p504
sba(iaperiot.plambda.plambda_ast
Variable
p505
(dp506
g259
g263
sbasbasbsg251
(lp507
g501
asbsg251
(lp508
g504
asbsg251
(lp509
g263
asbsg266
(iaperiot.plambda.plambda_ast
LambdaAbstraction
p510
(dp511
g238
g471
sg251
(lp512
sbsg259
S'list_10_12_25'
p513
sg255
g512
sg271
Nsg272
(lp514
(I7
S'NonTerminal(LIST_10_12_25) ->  EmptyStringSymbol : list_10_12_25'
tp515
asg275
g513
sg276
I1
sbsg277
(lp516
g89
asg279
(iaperiot.cfgs
NonTerminal
p517
(dp518
g10
g81
sbsba(iaperiot.cfgs
Rule
p519
(dp520
g235
(iaperiot.cfgs
PlamRuleAction
p521
(dp522
g238
(iaperiot.plambda.plambda_ast
Application
p523
(dp524
g245
(iaperiot.plambda.plambda_ast
Variable
p525
(dp526
g259
g373
sbsg255
(lp527
(iaperiot.plambda.plambda_ast
Variable
p528
(dp529
g259
g377
sbasbsg266
(iaperiot.plambda.plambda_ast
LambdaAbstraction
p530
(dp531
g238
g523
sg251
(lp532
g377
ag373
asbsg259
S'new_list_10_12_25_1'
p533
sg255
g532
sg271
Nsg272
(lp534
(I8
S"NonTerminal(LIST_10_12_25) ->  Terminal(Operator(';', 'semicolon')) NonTerminal(LIST_10_12_25_37) : new_list_10_12_25_1"
tp535
asg275
g533
sg276
I1
sbsg277
(lp536
g83
a(iaperiot.cfgs
NonTerminal
p537
(dp538
g10
g113
sbasg279
(iaperiot.cfgs
NonTerminal
p539
(dp540
g10
g81
sbsba(iaperiot.cfgs
Rule
p541
(dp542
g235
(iaperiot.cfgs
PlamRuleAction
p543
(dp544
g238
(iaperiot.plambda.plambda_ast
LambdaAbstraction
p545
(dp546
g238
(iaperiot.plambda.plambda_ast
Application
p547
(dp548
g245
(iaperiot.plambda.plambda_ast
LambdaAbstraction
p549
(dp550
g238
(iaperiot.plambda.plambda_ast
Constant
p551
(dp552
g24
S"parse_cellref(['cellref',x0.symbolic_name,'ABS',str(int(x2))])"
p553
sbsg251
(lp554
S'x0'
p555
aS'x1'
p556
aS'x2'
p557
asbsg255
(lp558
(iaperiot.plambda.plambda_ast
Variable
p559
(dp560
g259
S'z16'
p561
sba(iaperiot.plambda.plambda_ast
Variable
p562
(dp563
g259
S'x0'
p564
sba(iaperiot.plambda.plambda_ast
Variable
p565
(dp566
g259
S'x1'
p567
sbasbsg251
(lp568
g561
asbsg266
(iaperiot.plambda.plambda_ast
LambdaAbstraction
p569
(dp570
g238
g545
sg251
(lp571
S'x0'
p572
aS'x1'
p573
asbsg259
S'expansion_52'
p574
sg255
g571
sg271
Nsg272
(lp575
(I9
S"NonTerminal(CALCULATED_5) ->  Terminal(Operator('$', 'absolute')) Terminal(NumberLiteral) : expansion_52"
tp576
asg275
g574
sg276
I1
sbsg277
(lp577
g27
a(iaperiot.cfgs
Terminal
p578
(dp579
g10
g132
sbasg279
(iaperiot.cfgs
NonTerminal
p580
(dp581
g10
g11
sbsba(iaperiot.cfgs
Rule
p582
(dp583
g235
(iaperiot.cfgs
PlamRuleAction
p584
(dp585
g238
(iaperiot.plambda.plambda_ast
LambdaAbstraction
p586
(dp587
g238
(iaperiot.plambda.plambda_ast
Application
p588
(dp589
g245
(iaperiot.plambda.plambda_ast
LambdaAbstraction
p590
(dp591
g238
(iaperiot.plambda.plambda_ast
Constant
p592
(dp593
g24
S"parse_cellref(['cellref',x0.symbolic_name])"
p594
sbsg251
(lp595
S'x0'
p596
asbsg255
(lp597
(iaperiot.plambda.plambda_ast
Variable
p598
(dp599
g259
g263
sbasbsg251
(lp600
g263
asbsg266
(iaperiot.plambda.plambda_ast
LambdaAbstraction
p601
(dp602
g238
g586
sg251
(lp603
sbsg259
S'calculated_5_1'
p604
sg255
g603
sg271
Nsg272
(lp605
(I10
S'NonTerminal(CALCULATED_5) ->  EmptyStringSymbol : calculated_5_1'
tp606
asg275
g604
sg276
I1
sbsg277
(lp607
g33
asg279
(iaperiot.cfgs
NonTerminal
p608
(dp609
g10
g11
sbsba(iaperiot.cfgs
Rule
p610
(dp611
g235
(iaperiot.cfgs
PlamRuleAction
p612
(dp613
g238
(iaperiot.plambda.plambda_ast
LambdaAbstraction
p614
(dp615
g238
(iaperiot.plambda.plambda_ast
Application
p616
(dp617
g245
(iaperiot.plambda.plambda_ast
LambdaAbstraction
p618
(dp619
g238
(iaperiot.plambda.plambda_ast
Constant
p620
(dp621
g24
S"['funcall',x0.symbolic_name,x2]"
p622
sbsg251
(lp623
S'x0'
p624
aS'x1'
p625
aS'x2'
p626
aS'x3'
p627
asbsg255
(lp628
(iaperiot.plambda.plambda_ast
Variable
p629
(dp630
g259
S'z4'
p631
sba(iaperiot.plambda.plambda_ast
Variable
p632
(dp633
g259
S'x0'
p634
sba(iaperiot.plambda.plambda_ast
Application
p635
(dp636
g245
(iaperiot.plambda.plambda_ast
Variable
p637
(dp638
g259
S'x2'
p639
sbsg255
(lp640
(iaperiot.plambda.plambda_ast
Variable
p641
(dp642
g259
S'x1'
p643
sbasba(iaperiot.plambda.plambda_ast
Variable
p644
(dp645
g259
S'x3'
p646
sbasbsg251
(lp647
g631
asbsg266
(iaperiot.plambda.plambda_ast
LambdaAbstraction
p648
(dp649
g238
g614
sg251
(lp650
S'x0'
p651
aS'x1'
p652
aS'x2'
p653
aS'x3'
p654
asbsg259
S'expansion_35'
p655
sg255
g650
sg271
Nsg272
(lp656
(I11
S"NonTerminal(CALCULATED_5) ->  Terminal(Bracket('(', 'lpar')) NonTerminal(ARG) NonTerminal(ARGLIST_11) Terminal(Bracket(')', 'rpar')) : expansion_35"
tp657
asg275
g655
sg276
I1
sbsg277
(lp658
g14
a(iaperiot.cfgs
NonTerminal
p659
(dp660
g10
g120
sba(iaperiot.cfgs
NonTerminal
p661
(dp662
g10
g52
sba(iaperiot.cfgs
Terminal
p663
(dp664
g10
(iaperiot.lexer
Bracket
p665
(dp666
g18
Nsg19
S')'
sg20
S'rpar'
p667
sg22
(NNNtp668
sg24
S')'
sg25
Nsg26
Nsbsbasg279
(iaperiot.cfgs
NonTerminal
p669
(dp670
g10
g11
sbsba(iaperiot.cfgs
Rule
p671
(dp672
g235
(iaperiot.cfgs
PlamRuleAction
p673
(dp674
g238
(iaperiot.plambda.plambda_ast
Application
p675
(dp676
g245
(iaperiot.plambda.plambda_ast
LambdaAbstraction
p677
(dp678
g238
(iaperiot.plambda.plambda_ast
Constant
p679
(dp680
g24
S'x0.val()'
p681
sbsg251
(lp682
S'x0'
p683
asbsg255
(lp684
(iaperiot.plambda.plambda_ast
Variable
p685
(dp686
g259
S'x0'
p687
sbasbsg266
(iaperiot.plambda.plambda_ast
LambdaAbstraction
p688
(dp689
g238
g675
sg251
(lp690
S'x0'
p691
asbsg259
S'expansion_43'
p692
sg255
g690
sg271
Nsg272
(lp693
(I12
S'NonTerminal(FACTOR) ->  Terminal(NumberLiteral) : expansion_43'
tp694
asg275
g692
sg276
I1
sbsg277
(lp695
g130
asg279
(iaperiot.cfgs
NonTerminal
p696
(dp697
g10
g164
sbsba(iaperiot.cfgs
Rule
p698
(dp699
g235
(iaperiot.cfgs
PlamRuleAction
p700
(dp701
g238
(iaperiot.plambda.plambda_ast
Application
p702
(dp703
g245
(iaperiot.plambda.plambda_ast
LambdaAbstraction
p704
(dp705
g238
(iaperiot.plambda.plambda_ast
Constant
p706
(dp707
g24
S"['group',x1]"
p708
sbsg251
(lp709
S'x0'
p710
aS'x1'
p711
aS'x2'
p712
asbsg255
(lp713
(iaperiot.plambda.plambda_ast
Variable
p714
(dp715
g259
S'x0'
p716
sba(iaperiot.plambda.plambda_ast
Application
p717
(dp718
g245
(iaperiot.plambda.plambda_ast
Variable
p719
(dp720
g259
S'x3'
p721
sbsg255
(lp722
(iaperiot.plambda.plambda_ast
Application
p723
(dp724
g245
(iaperiot.plambda.plambda_ast
Variable
p725
(dp726
g259
S'x2'
p727
sbsg255
(lp728
(iaperiot.plambda.plambda_ast
Variable
p729
(dp730
g259
S'x1'
p731
sbasbasba(iaperiot.plambda.plambda_ast
Variable
p732
(dp733
g259
S'x4'
p734
sbasbsg266
(iaperiot.plambda.plambda_ast
LambdaAbstraction
p735
(dp736
g238
g702
sg251
(lp737
S'x0'
p738
aS'x1'
p739
aS'x2'
p740
aS'x3'
p741
aS'x4'
p742
asbsg259
S'expansion_44'
p743
sg255
g737
sg271
Nsg272
(lp744
(I13
S"NonTerminal(FACTOR) ->  Terminal(Bracket('(', 'lpar')) NonTerminal(FACTOR) NonTerminal(TERM_0) NonTerminal(EXPR_3) Terminal(Bracket(')', 'rpar')) : expansion_44"
tp745
asg275
g743
sg276
I1
sbsg277
(lp746
g122
a(iaperiot.cfgs
NonTerminal
p747
(dp748
g10
g164
sba(iaperiot.cfgs
NonTerminal
p749
(dp750
g10
g94
sba(iaperiot.cfgs
NonTerminal
p751
(dp752
g10
g136
sba(iaperiot.cfgs
Terminal
p753
(dp754
g10
g665
sbasg279
(iaperiot.cfgs
NonTerminal
p755
(dp756
g10
g164
sbsba(iaperiot.cfgs
Rule
p757
(dp758
g235
(iaperiot.cfgs
PlamRuleAction
p759
(dp760
g238
(iaperiot.plambda.plambda_ast
Application
p761
(dp762
g245
(iaperiot.plambda.plambda_ast
LambdaAbstraction
p763
(dp764
g238
(iaperiot.plambda.plambda_ast
Constant
p765
(dp766
g24
S'-x1'
p767
sbsg251
(lp768
S'x0'
p769
aS'x1'
p770
asbsg255
(lp771
(iaperiot.plambda.plambda_ast
Variable
p772
(dp773
g259
S'x0'
p774
sba(iaperiot.plambda.plambda_ast
Variable
p775
(dp776
g259
S'x1'
p777
sbasbsg266
(iaperiot.plambda.plambda_ast
LambdaAbstraction
p778
(dp779
g238
g761
sg251
(lp780
S'x0'
p781
aS'x1'
p782
asbsg259
S'expansion_41'
p783
sg255
g780
sg271
Nsg272
(lp784
(I14
S"NonTerminal(FACTOR) ->  Terminal(Operator('-', 'minus')) NonTerminal(FACTOR) : expansion_41"
tp785
asg275
g783
sg276
I1
sbsg277
(lp786
g124
a(iaperiot.cfgs
NonTerminal
p787
(dp788
g10
g164
sbasg279
(iaperiot.cfgs
NonTerminal
p789
(dp790
g10
g164
sbsba(iaperiot.cfgs
Rule
p791
(dp792
g235
(iaperiot.cfgs
PlamRuleAction
p793
(dp794
g238
(iaperiot.plambda.plambda_ast
Application
p795
(dp796
g245
(iaperiot.plambda.plambda_ast
LambdaAbstraction
p797
(dp798
g238
(iaperiot.plambda.plambda_ast
Constant
p799
(dp800
g24
S'x0'
p801
sbsg251
(lp802
S'x0'
p803
asbsg255
(lp804
(iaperiot.plambda.plambda_ast
Variable
p805
(dp806
g259
S'x0'
p807
sbasbsg266
(iaperiot.plambda.plambda_ast
LambdaAbstraction
p808
(dp809
g238
g795
sg251
(lp810
S'x0'
p811
asbsg259
S'expansion_42'
p812
sg255
g810
sg271
Nsg272
(lp813
(I15
S'NonTerminal(FACTOR) ->  NonTerminal(CALCULATED) : expansion_42'
tp814
asg275
g812
sg276
I1
sbsg277
(lp815
(iaperiot.cfgs
NonTerminal
p816
(dp817
g10
g42
sbasg279
(iaperiot.cfgs
NonTerminal
p818
(dp819
g10
g164
sbsba(iaperiot.cfgs
Rule
p820
(dp821
g235
(iaperiot.cfgs
PlamRuleAction
p822
(dp823
g238
(iaperiot.plambda.plambda_ast
LambdaAbstraction
p824
(dp825
g238
(iaperiot.plambda.plambda_ast
LambdaAbstraction
p826
(dp827
g238
(iaperiot.plambda.plambda_ast
LambdaAbstraction
p828
(dp829
g238
(iaperiot.plambda.plambda_ast
LambdaAbstraction
p830
(dp831
g238
(iaperiot.plambda.plambda_ast
Application
p832
(dp833
g245
(iaperiot.plambda.plambda_ast
LambdaAbstraction
p834
(dp835
g238
(iaperiot.plambda.plambda_ast
Constant
p836
(dp837
g24
S'[x0]+x2'
p838
sbsg251
(lp839
S'x0'
p840
aS'x1'
p841
aS'x2'
p842
asbsg255
(lp843
(iaperiot.plambda.plambda_ast
Application
p844
(dp845
g245
(iaperiot.plambda.plambda_ast
LambdaAbstraction
p846
(dp847
g238
g491
sg251
g494
sbsg255
(lp848
(iaperiot.plambda.plambda_ast
Variable
p849
(dp850
g259
S'z3'
p851
sba(iaperiot.plambda.plambda_ast
Variable
p852
(dp853
g259
S'z12'
p854
sba(iaperiot.plambda.plambda_ast
Variable
p855
(dp856
g259
S'z13'
p857
sbasba(iaperiot.plambda.plambda_ast
Variable
p858
(dp859
g259
S'z14'
p860
sba(iaperiot.plambda.plambda_ast
Variable
p861
(dp862
g259
S'x0'
p863
sbasbsg251
(lp864
g851
asbsg251
(lp865
g854
asbsg251
(lp866
g857
asbsg251
(lp867
g860
asbsg266
(iaperiot.plambda.plambda_ast
LambdaAbstraction
p868
(dp869
g238
g824
sg251
(lp870
S'x0'
p871
asbsg259
S'expansion_13'
p872
sg255
g870
sg271
Nsg272
(lp873
(I16
S'NonTerminal(LIST_10_12_25_37) ->  NonTerminal(LIST) : expansion_13'
tp874
asg275
g872
sg276
I1
sbsg277
(lp875
(iaperiot.cfgs
NonTerminal
p876
(dp877
g10
g65
sbasg279
(iaperiot.cfgs
NonTerminal
p878
(dp879
g10
g113
sbsba(iaperiot.cfgs
Rule
p880
(dp881
g235
(iaperiot.cfgs
PlamRuleAction
p882
(dp883
g238
(iaperiot.plambda.plambda_ast
LambdaAbstraction
p884
(dp885
g238
(iaperiot.plambda.plambda_ast
LambdaAbstraction
p886
(dp887
g238
(iaperiot.plambda.plambda_ast
LambdaAbstraction
p888
(dp889
g238
(iaperiot.plambda.plambda_ast
LambdaAbstraction
p890
(dp891
g238
(iaperiot.plambda.plambda_ast
Application
p892
(dp893
g245
(iaperiot.plambda.plambda_ast
LambdaAbstraction
p894
(dp895
g238
(iaperiot.plambda.plambda_ast
Constant
p896
(dp897
g24
S'[x0]'
p898
sbsg251
(lp899
S'x0'
p900
aS'x1'
p901
asbsg255
(lp902
(iaperiot.plambda.plambda_ast
Application
p903
(dp904
g245
(iaperiot.plambda.plambda_ast
LambdaAbstraction
p905
(dp906
g238
g491
sg251
g494
sbsg255
(lp907
(iaperiot.plambda.plambda_ast
Variable
p908
(dp909
g259
S'z2'
p910
sba(iaperiot.plambda.plambda_ast
Variable
p911
(dp912
g259
S'z22'
p913
sba(iaperiot.plambda.plambda_ast
Variable
p914
(dp915
g259
S'z29'
p916
sbasba(iaperiot.plambda.plambda_ast
Variable
p917
(dp918
g259
g263
sbasbsg251
(lp919
g910
asbsg251
(lp920
g913
asbsg251
(lp921
g916
asbsg251
(lp922
g263
asbsg266
(iaperiot.plambda.plambda_ast
LambdaAbstraction
p923
(dp924
g238
g884
sg251
(lp925
sbsg259
S'list_10_12_25_37_1'
p926
sg255
g925
sg271
Nsg272
(lp927
(I17
S'NonTerminal(LIST_10_12_25_37) ->  EmptyStringSymbol : list_10_12_25_37_1'
tp928
asg275
g926
sg276
I1
sbsg277
(lp929
g115
asg279
(iaperiot.cfgs
NonTerminal
p930
(dp931
g10
g113
sbsba(iaperiot.cfgs
Rule
p932
(dp933
g235
(iaperiot.cfgs
PlamRuleAction
p934
(dp935
g238
(iaperiot.plambda.plambda_ast
Application
p936
(dp937
g245
(iaperiot.plambda.plambda_ast
Application
p938
(dp939
g245
(iaperiot.plambda.plambda_ast
Application
p940
(dp941
g245
(iaperiot.plambda.plambda_ast
Variable
p942
(dp943
g259
S'x5'
p944
sbsg255
(lp945
(iaperiot.plambda.plambda_ast
Application
p946
(dp947
g245
(iaperiot.plambda.plambda_ast
Variable
p948
(dp949
g259
S'x4'
p950
sbsg255
(lp951
(iaperiot.plambda.plambda_ast
Application
p952
(dp953
g245
(iaperiot.plambda.plambda_ast
Variable
p954
(dp955
g259
S'x3'
p956
sbsg255
(lp957
(iaperiot.plambda.plambda_ast
Variable
p958
(dp959
g259
S'x2'
p960
sbasbasbasbsg255
(lp961
(iaperiot.plambda.plambda_ast
Variable
p962
(dp963
g259
S'x1'
p964
sbasbsg255
(lp965
(iaperiot.plambda.plambda_ast
Variable
p966
(dp967
g259
S'x0'
p968
sbasbsg266
(iaperiot.plambda.plambda_ast
LambdaAbstraction
p969
(dp970
g238
g936
sg251
(lp971
S'x0'
p972
aS'x1'
p973
aS'x2'
p974
aS'x3'
p975
aS'x4'
p976
aS'x5'
p977
asbsg259
S'expansion_56'
p978
sg255
g971
sg271
Nsg272
(lp979
(I18
S"NonTerminal(LIST) ->  Terminal(Identifier) Terminal(Operator('=', 'equal')) NonTerminal(FACTOR) NonTerminal(TERM_0) NonTerminal(EXPR_3) NonTerminal(LIST_10_12_25) : expansion_56"
tp980
asg275
g978
sg276
I1
sbsg277
(lp981
g67
a(iaperiot.cfgs
Terminal
p982
(dp983
g10
(iaperiot.lexer
Operator
p984
(dp985
g18
Nsg19
S'='
sg20
S'equal'
p986
sg22
(NNNtp987
sg24
S'='
sg25
Nsg26
Nsbsba(iaperiot.cfgs
NonTerminal
p988
(dp989
g10
g164
sba(iaperiot.cfgs
NonTerminal
p990
(dp991
g10
g94
sba(iaperiot.cfgs
NonTerminal
p992
(dp993
g10
g136
sba(iaperiot.cfgs
NonTerminal
p994
(dp995
g10
g81
sbasg279
(iaperiot.cfgs
NonTerminal
p996
(dp997
g10
g65
sbsba(iaperiot.cfgs
Rule
p998
(dp999
g235
(iaperiot.cfgs
PlamRuleAction
p1000
(dp1001
g238
(iaperiot.plambda.plambda_ast
LambdaAbstraction
p1002
(dp1003
g238
(iaperiot.plambda.plambda_ast
Application
p1004
(dp1005
g245
(iaperiot.plambda.plambda_ast
LambdaAbstraction
p1006
(dp1007
g238
(iaperiot.plambda.plambda_ast
Constant
p1008
(dp1009
g24
S'x0'
p1010
sbsg251
(lp1011
S'x0'
p1012
asbsg255
(lp1013
(iaperiot.plambda.plambda_ast
Variable
p1014
(dp1015
g259
g263
sbasbsg251
(lp1016
g263
asbsg266
(iaperiot.plambda.plambda_ast
LambdaAbstraction
p1017
(dp1018
g238
g1002
sg251
(lp1019
sbsg259
S'expr_3'
p1020
sg255
g1019
sg271
Nsg272
(lp1021
(I19
S'NonTerminal(EXPR_3) ->  EmptyStringSymbol : expr_3'
tp1022
asg275
g1020
sg276
I1
sbsg277
(lp1023
g146
asg279
(iaperiot.cfgs
NonTerminal
p1024
(dp1025
g10
g136
sbsba(iaperiot.cfgs
Rule
p1026
(dp1027
g235
(iaperiot.cfgs
PlamRuleAction
p1028
(dp1029
g238
(iaperiot.plambda.plambda_ast
LambdaAbstraction
p1030
(dp1031
g238
(iaperiot.plambda.plambda_ast
Application
p1032
(dp1033
g245
(iaperiot.plambda.plambda_ast
LambdaAbstraction
p1034
(dp1035
g238
(iaperiot.plambda.plambda_ast
Constant
p1036
(dp1037
g24
S"['+',x0,x2]"
p1038
sbsg251
(lp1039
S'x0'
p1040
aS'x1'
p1041
aS'x2'
p1042
asbsg255
(lp1043
(iaperiot.plambda.plambda_ast
Variable
p1044
(dp1045
g259
S'z10'
p1046
sba(iaperiot.plambda.plambda_ast
Variable
p1047
(dp1048
g259
S'x0'
p1049
sba(iaperiot.plambda.plambda_ast
Application
p1050
(dp1051
g245
(iaperiot.plambda.plambda_ast
Variable
p1052
(dp1053
g259
S'x3'
p1054
sbsg255
(lp1055
(iaperiot.plambda.plambda_ast
Application
p1056
(dp1057
g245
(iaperiot.plambda.plambda_ast
Variable
p1058
(dp1059
g259
S'x2'
p1060
sbsg255
(lp1061
(iaperiot.plambda.plambda_ast
Variable
p1062
(dp1063
g259
S'x1'
p1064
sbasbasbasbsg251
(lp1065
g1046
asbsg266
(iaperiot.plambda.plambda_ast
LambdaAbstraction
p1066
(dp1067
g238
g1030
sg251
(lp1068
S'x0'
p1069
aS'x1'
p1070
aS'x2'
p1071
aS'x3'
p1072
asbsg259
S'expansion_26'
p1073
sg255
g1068
sg271
Nsg272
(lp1074
(I20
S"NonTerminal(EXPR_3) ->  Terminal(Operator('+', 'plus')) NonTerminal(FACTOR) NonTerminal(TERM_0) NonTerminal(EXPR_3) : expansion_26"
tp1075
asg275
g1073
sg276
I1
sbsg277
(lp1076
g138
a(iaperiot.cfgs
NonTerminal
p1077
(dp1078
g10
g164
sba(iaperiot.cfgs
NonTerminal
p1079
(dp1080
g10
g94
sba(iaperiot.cfgs
NonTerminal
p1081
(dp1082
g10
g136
sbasg279
(iaperiot.cfgs
NonTerminal
p1083
(dp1084
g10
g136
sbsba(iaperiot.cfgs
Rule
p1085
(dp1086
g235
(iaperiot.cfgs
PlamRuleAction
p1087
(dp1088
g238
(iaperiot.plambda.plambda_ast
LambdaAbstraction
p1089
(dp1090
g238
(iaperiot.plambda.plambda_ast
Application
p1091
(dp1092
g245
(iaperiot.plambda.plambda_ast
LambdaAbstraction
p1093
(dp1094
g238
(iaperiot.plambda.plambda_ast
Constant
p1095
(dp1096
g24
S"['-',x0,x2]"
p1097
sbsg251
(lp1098
S'x0'
p1099
aS'x1'
p1100
aS'x2'
p1101
asbsg255
(lp1102
(iaperiot.plambda.plambda_ast
Variable
p1103
(dp1104
g259
S'z18'
p1105
sba(iaperiot.plambda.plambda_ast
Variable
p1106
(dp1107
g259
S'x0'
p1108
sba(iaperiot.plambda.plambda_ast
Application
p1109
(dp1110
g245
(iaperiot.plambda.plambda_ast
Variable
p1111
(dp1112
g259
S'x3'
p1113
sbsg255
(lp1114
(iaperiot.plambda.plambda_ast
Application
p1115
(dp1116
g245
(iaperiot.plambda.plambda_ast
Variable
p1117
(dp1118
g259
S'x2'
p1119
sbsg255
(lp1120
(iaperiot.plambda.plambda_ast
Variable
p1121
(dp1122
g259
S'x1'
p1123
sbasbasbasbsg251
(lp1124
g1105
asbsg266
(iaperiot.plambda.plambda_ast
LambdaAbstraction
p1125
(dp1126
g238
g1089
sg251
(lp1127
S'x0'
p1128
aS'x1'
p1129
aS'x2'
p1130
aS'x3'
p1131
asbsg259
S'expansion_27'
p1132
sg255
g1127
sg271
Nsg272
(lp1133
(I21
S"NonTerminal(EXPR_3) ->  Terminal(Operator('-', 'minus')) NonTerminal(FACTOR) NonTerminal(TERM_0) NonTerminal(EXPR_3) : expansion_27"
tp1134
asg275
g1132
sg276
I1
sbsg277
(lp1135
g144
a(iaperiot.cfgs
NonTerminal
p1136
(dp1137
g10
g164
sba(iaperiot.cfgs
NonTerminal
p1138
(dp1139
g10
g94
sba(iaperiot.cfgs
NonTerminal
p1140
(dp1141
g10
g136
sbasg279
(iaperiot.cfgs
NonTerminal
p1142
(dp1143
g10
g136
sbsba(iaperiot.cfgs
Rule
p1144
(dp1145
g235
(iaperiot.cfgs
PlamRuleAction
p1146
(dp1147
g238
(iaperiot.plambda.plambda_ast
LambdaAbstraction
p1148
(dp1149
g238
(iaperiot.plambda.plambda_ast
Application
p1150
(dp1151
g245
(iaperiot.plambda.plambda_ast
LambdaAbstraction
p1152
(dp1153
g238
(iaperiot.plambda.plambda_ast
Constant
p1154
(dp1155
g24
S'x0'
p1156
sbsg251
(lp1157
S'x0'
p1158
asbsg255
(lp1159
(iaperiot.plambda.plambda_ast
Variable
p1160
(dp1161
g259
g263
sbasbsg251
(lp1162
g263
asbsg266
(iaperiot.plambda.plambda_ast
LambdaAbstraction
p1163
(dp1164
g238
g1148
sg251
(lp1165
sbsg259
S'term_0'
p1166
sg255
g1165
sg271
Nsg272
(lp1167
(I22
S'NonTerminal(TERM_0) ->  EmptyStringSymbol : term_0'
tp1168
asg275
g1166
sg276
I1
sbsg277
(lp1169
g108
asg279
(iaperiot.cfgs
NonTerminal
p1170
(dp1171
g10
g94
sbsba(iaperiot.cfgs
Rule
p1172
(dp1173
g235
(iaperiot.cfgs
PlamRuleAction
p1174
(dp1175
g238
(iaperiot.plambda.plambda_ast
LambdaAbstraction
p1176
(dp1177
g238
(iaperiot.plambda.plambda_ast
Application
p1178
(dp1179
g245
(iaperiot.plambda.plambda_ast
LambdaAbstraction
p1180
(dp1181
g238
(iaperiot.plambda.plambda_ast
Constant
p1182
(dp1183
g24
S"['*',x0,x2]"
p1184
sbsg251
(lp1185
S'x0'
p1186
aS'x1'
p1187
aS'x2'
p1188
asbsg255
(lp1189
(iaperiot.plambda.plambda_ast
Variable
p1190
(dp1191
g259
S'z25'
p1192
sba(iaperiot.plambda.plambda_ast
Variable
p1193
(dp1194
g259
S'x0'
p1195
sba(iaperiot.plambda.plambda_ast
Application
p1196
(dp1197
g245
(iaperiot.plambda.plambda_ast
Variable
p1198
(dp1199
g259
S'x2'
p1200
sbsg255
(lp1201
(iaperiot.plambda.plambda_ast
Variable
p1202
(dp1203
g259
S'x1'
p1204
sbasbasbsg251
(lp1205
g1192
asbsg266
(iaperiot.plambda.plambda_ast
LambdaAbstraction
p1206
(dp1207
g238
g1176
sg251
(lp1208
S'x0'
p1209
aS'x1'
p1210
aS'x2'
p1211
asbsg259
S'expansion_49'
p1212
sg255
g1208
sg271
Nsg272
(lp1213
(I23
S"NonTerminal(TERM_0) ->  Terminal(Operator('*', 'times')) NonTerminal(FACTOR) NonTerminal(TERM_0) : expansion_49"
tp1214
asg275
g1212
sg276
I1
sbsg277
(lp1215
g96
a(iaperiot.cfgs
NonTerminal
p1216
(dp1217
g10
g164
sba(iaperiot.cfgs
NonTerminal
p1218
(dp1219
g10
g94
sbasg279
(iaperiot.cfgs
NonTerminal
p1220
(dp1221
g10
g94
sbsba(iaperiot.cfgs
Rule
p1222
(dp1223
g235
(iaperiot.cfgs
PlamRuleAction
p1224
(dp1225
g238
(iaperiot.plambda.plambda_ast
LambdaAbstraction
p1226
(dp1227
g238
(iaperiot.plambda.plambda_ast
Application
p1228
(dp1229
g245
(iaperiot.plambda.plambda_ast
LambdaAbstraction
p1230
(dp1231
g238
(iaperiot.plambda.plambda_ast
Constant
p1232
(dp1233
g24
S"['/',x0,x2]"
p1234
sbsg251
(lp1235
S'x0'
p1236
aS'x1'
p1237
aS'x2'
p1238
asbsg255
(lp1239
(iaperiot.plambda.plambda_ast
Variable
p1240
(dp1241
g259
S'z9'
p1242
sba(iaperiot.plambda.plambda_ast
Variable
p1243
(dp1244
g259
S'x0'
p1245
sba(iaperiot.plambda.plambda_ast
Application
p1246
(dp1247
g245
(iaperiot.plambda.plambda_ast
Variable
p1248
(dp1249
g259
S'x2'
p1250
sbsg255
(lp1251
(iaperiot.plambda.plambda_ast
Variable
p1252
(dp1253
g259
S'x1'
p1254
sbasbasbsg251
(lp1255
g1242
asbsg266
(iaperiot.plambda.plambda_ast
LambdaAbstraction
p1256
(dp1257
g238
g1226
sg251
(lp1258
S'x0'
p1259
aS'x1'
p1260
aS'x2'
p1261
asbsg259
S'expansion_29'
p1262
sg255
g1258
sg271
Nsg272
(lp1263
(I24
S"NonTerminal(TERM_0) ->  Terminal(Operator('/', 'div')) NonTerminal(FACTOR) NonTerminal(TERM_0) : expansion_29"
tp1264
asg275
g1262
sg276
I1
sbsg277
(lp1265
g102
a(iaperiot.cfgs
NonTerminal
p1266
(dp1267
g10
g164
sba(iaperiot.cfgs
NonTerminal
p1268
(dp1269
g10
g94
sbasg279
(iaperiot.cfgs
NonTerminal
p1270
(dp1271
g10
g94
sbsba(iaperiot.cfgs
Rule
p1272
(dp1273
g235
(iaperiot.cfgs
PlamRuleAction
p1274
(dp1275
g238
(iaperiot.plambda.plambda_ast
Application
p1276
(dp1277
g245
(iaperiot.plambda.plambda_ast
Variable
p1278
(dp1279
g259
g373
sbsg255
(lp1280
(iaperiot.plambda.plambda_ast
Variable
p1281
(dp1282
g259
g377
sbasbsg266
(iaperiot.plambda.plambda_ast
LambdaAbstraction
p1283
(dp1284
g238
g1276
sg251
(lp1285
g377
ag373
asbsg259
S'new_expansion_0'
p1286
sg255
g1285
sg271
Nsg272
(lp1287
(I25
S'NonTerminal(ARG) ->  NonTerminal(CALCULATED) NonTerminal(ARG_1) : new_expansion_0'
tp1288
asg275
g1286
sg276
I1
sbsg277
(lp1289
(iaperiot.cfgs
NonTerminal
p1290
(dp1291
g10
g42
sba(iaperiot.cfgs
NonTerminal
p1292
(dp1293
g10
g151
sbasg279
(iaperiot.cfgs
NonTerminal
p1294
(dp1295
g10
g120
sbsba(iaperiot.cfgs
Rule
p1296
(dp1297
g235
(iaperiot.cfgs
PlamRuleAction
p1298
(dp1299
g238
(iaperiot.plambda.plambda_ast
Application
p1300
(dp1301
g245
(iaperiot.plambda.plambda_ast
LambdaAbstraction
p1302
(dp1303
g238
(iaperiot.plambda.plambda_ast
Constant
p1304
(dp1305
g24
S'x0'
p1306
sbsg251
(lp1307
S'x0'
p1308
asbsg255
(lp1309
(iaperiot.plambda.plambda_ast
Application
p1310
(dp1311
g245
(iaperiot.plambda.plambda_ast
Variable
p1312
(dp1313
g259
S'x2'
p1314
sbsg255
(lp1315
(iaperiot.plambda.plambda_ast
Application
p1316
(dp1317
g245
(iaperiot.plambda.plambda_ast
Variable
p1318
(dp1319
g259
S'x1'
p1320
sbsg255
(lp1321
(iaperiot.plambda.plambda_ast
Variable
p1322
(dp1323
g259
S'x0'
p1324
sbasbasbasbsg266
(iaperiot.plambda.plambda_ast
LambdaAbstraction
p1325
(dp1326
g238
g1300
sg251
(lp1327
S'x0'
p1328
aS'x1'
p1329
aS'x2'
p1330
asbsg259
S'expansion_57'
p1331
sg255
g1327
sg271
Nsg272
(lp1332
(I26
S'NonTerminal(ARG) ->  NonTerminal(FACTOR) NonTerminal(TERM_0) NonTerminal(EXPR_3) : expansion_57'
tp1333
asg275
g1331
sg276
I1
sbsg277
(lp1334
(iaperiot.cfgs
NonTerminal
p1335
(dp1336
g10
g164
sba(iaperiot.cfgs
NonTerminal
p1337
(dp1338
g10
g94
sba(iaperiot.cfgs
NonTerminal
p1339
(dp1340
g10
g136
sbasg279
(iaperiot.cfgs
NonTerminal
p1341
(dp1342
g10
g120
sbsba(iaperiot.cfgs
Rule
p1343
(dp1344
g235
(iaperiot.cfgs
PlamRuleAction
p1345
(dp1346
g238
(iaperiot.plambda.plambda_ast
LambdaAbstraction
p1347
(dp1348
g238
(iaperiot.plambda.plambda_ast
Application
p1349
(dp1350
g245
(iaperiot.plambda.plambda_ast
LambdaAbstraction
p1351
(dp1352
g238
(iaperiot.plambda.plambda_ast
Constant
p1353
(dp1354
g24
S'x0'
p1355
sbsg251
(lp1356
S'x0'
p1357
asbsg255
(lp1358
(iaperiot.plambda.plambda_ast
Application
p1359
(dp1360
g245
(iaperiot.plambda.plambda_ast
LambdaAbstraction
p1361
(dp1362
g238
(iaperiot.plambda.plambda_ast
Constant
p1363
(dp1364
g24
S"['range',x0,x2]"
p1365
sbsg251
(lp1366
S'x0'
p1367
aS'x1'
p1368
aS'x2'
p1369
asbsg255
(lp1370
(iaperiot.plambda.plambda_ast
Variable
p1371
(dp1372
g259
S'z23'
p1373
sba(iaperiot.plambda.plambda_ast
Variable
p1374
(dp1375
g259
S'x0'
p1376
sba(iaperiot.plambda.plambda_ast
Variable
p1377
(dp1378
g259
S'x1'
p1379
sbasbasbsg251
(lp1380
g1373
asbsg266
(iaperiot.plambda.plambda_ast
LambdaAbstraction
p1381
(dp1382
g238
g1347
sg251
(lp1383
S'x0'
p1384
aS'x1'
p1385
asbsg259
S'expansion_50'
p1386
sg255
g1383
sg271
Nsg272
(lp1387
(I27
S"NonTerminal(ARG_1) ->  Terminal(Operator(':', 'colon')) NonTerminal(CALCULATED) : expansion_50"
tp1388
asg275
g1386
sg276
I1
sbsg277
(lp1389
g153
a(iaperiot.cfgs
NonTerminal
p1390
(dp1391
g10
g42
sbasg279
(iaperiot.cfgs
NonTerminal
p1392
(dp1393
g10
g151
sbsba(iaperiot.cfgs
Rule
p1394
(dp1395
g235
(iaperiot.cfgs
PlamRuleAction
p1396
(dp1397
g238
(iaperiot.plambda.plambda_ast
LambdaAbstraction
p1398
(dp1399
g238
(iaperiot.plambda.plambda_ast
Application
p1400
(dp1401
g245
(iaperiot.plambda.plambda_ast
LambdaAbstraction
p1402
(dp1403
g238
(iaperiot.plambda.plambda_ast
Constant
p1404
(dp1405
g24
S'x0'
p1406
sbsg251
(lp1407
S'x0'
p1408
asbsg255
(lp1409
(iaperiot.plambda.plambda_ast
Variable
p1410
(dp1411
g259
g263
sbasbsg251
(lp1412
g263
asbsg266
(iaperiot.plambda.plambda_ast
LambdaAbstraction
p1413
(dp1414
g238
g1398
sg251
(lp1415
sbsg259
S'arg_1_1'
p1416
sg255
g1415
sg271
Nsg272
(lp1417
(I28
S'NonTerminal(ARG_1) ->  EmptyStringSymbol : arg_1_1'
tp1418
asg275
g1416
sg276
I1
sbsg277
(lp1419
g159
asg279
(iaperiot.cfgs
NonTerminal
p1420
(dp1421
g10
g151
sbsbasS'efac'
p1422
I57
sS'non_terminals'
p1423
(iaperiot.cfgs
SymbolSet
p1424
(dp1425
S'the_set'
p1426
g12
((lp1427
g8
ag111
ag118
ag40
ag50
ag63
ag70
ag149
ag92
ag79
ag162
ag134
atRp1428
sbsS'terminals'
p1429
(iaperiot.cfgs
SymbolSet
p1430
(dp1431
g1426
g12
((lp1432
g96
ag74
ag663
ag14
ag138
ag124
ag359
ag54
ag102
ag982
ag83
ag153
ag326
atRp1433
sbsS'all_names'
p1434
(lp1435
sS'original_actions'
p1436
(dp1437
sS'composite_rule_table_with_templates'
p1438
(dp1439
S'TERM'
p1440
(lp1441
((lp1442
g164
aS'$1'
p1443
tp1444
a((lp1445
g164
ag98
ag1440
aS"['*',$1,$3]"
tp1446
a((lp1447
g164
ag104
ag1440
aS"['/',$1,$3]"
tp1448
asS'ASSIGNMENT'
p1449
(lp1450
((lp1451
g46
ag984
aS'EXPR'
p1452
aS'($1,$3)'
tp1453
asg42
(lp1454
((lp1455
g29
ag46
aS"parse_cellref(['cellref','ABS',$2.symbolic_name])"
tp1456
a((lp1457
g46
ag29
ag132
aS"parse_cellref(['cellref',$1.symbolic_name,'ABS',str(int($3))])"
tp1458
a((lp1459
g29
ag46
ag29
ag132
aS"parse_cellref(['cellref','ABS',$2.symbolic_name,'ABS',str(int($4))])"
tp1460
a((lp1461
g46
aS"parse_cellref(['cellref',$1.symbolic_name])"
tp1462
a((lp1463
g46
ag16
aS'ARGLIST'
p1464
ag665
aS"['funcall',$1.symbolic_name,$3]"
tp1465
asg164
(lp1466
((lp1467
g132
aS'$1.val()'
tp1468
a((lp1469
g16
ag1452
ag665
aS"['group',$2]"
tp1470
a((lp1471
g126
ag164
aS'-$2'
tp1472
a((lp1473
g42
ag1443
tp1474
asg65
(lp1475
((lp1476
g1449
aS'[$1]'
p1477
tp1478
a((lp1479
g1449
ag85
ag65
aS'[$1]+$3'
p1480
tp1481
a((lp1482
g1449
ag85
ag1477
tp1483
asg1452
(lp1484
((lp1485
g1440
ag1443
tp1486
a((lp1487
g1440
ag140
ag1452
aS"['+',$1,$3]"
tp1488
a((lp1489
g1440
ag126
ag1452
aS"['-',$1,$3]"
tp1490
asS'MULRANGE'
p1491
(lp1492
((lp1493
S'RANGE'
p1494
ag56
ag1494
aS"['mulrange',$1,$3]"
tp1495
asg1494
(lp1496
((lp1497
g42
ag155
ag42
aS"['range',$1,$3]"
tp1498
asg120
(lp1499
((lp1500
g1494
ag1443
tp1501
a((lp1502
g1452
ag1443
tp1503
a((lp1504
g42
ag1443
tp1505
asg1464
(lp1506
((lp1507
g120
ag56
ag1464
ag1480
tp1508
a((lp1509
g120
ag1477
tp1510
assS'modules_to_import'
p1511
(lp1512
S'cellutils'
p1513
asS'ind_gen'
p1514
(iposse_tools.utils
IndexedNameGenerator
p1515
(dp1516
S'names_to_avoid'
p1517
(dp1518
sS'last_index'
p1519
I0
sS'base_name'
p1520
S'S'
sbsS'start'
p1521
(iaperiot.cfgs
NonTerminal
p1522
(dp1523
g10
g65
sbsS'name_gen'
p1524
(iposse_tools.utils
NameGenerator
p1525
(dp1526
g1517
(dp1527
S'EXPR_3_18'
p1528
NsS'CALCULATED_5_14_31'
p1529
NsS'EXPR_3_18_24'
p1530
NsS'TERM_0_20_33'
p1531
Nsg72
NsS'EXPR_3_17'
p1532
NsS'CALCULATED_5_13'
p1533
NsS'CALCULATED_5_14'
p1534
NsS'EXPR_3_17_27'
p1535
Nsg1440
NsS'CALCULATED_5_14_31_35'
p1536
Nsg1452
Nsg42
Nsg52
NsS'TERM_0_20'
p1537
Nsg81
NsS'ARGLIST_11_16'
p1538
NsS'FACTOR_7_22'
p1539
Nsg1464
NsS'FACTOR_8_21'
p1540
Nsg11
NsS'CALCULATED_4'
p1541
Nsg164
NsS'FACTOR_7_22_32'
p1542
NsS'CALCULATED_4_15_26_36'
p1543
NsS'FACTOR_8'
p1544
NsS'FACTOR_9'
p1545
NsS'FACTOR_6'
p1546
NsS'FACTOR_7'
p1547
Nsg113
NsS'LIST_10_12'
p1548
Nsg65
NsS'TERM_0_19'
p1549
Nsg151
Nsg94
NsS'ARG_1_23_34'
p1550
NsS'TERM_0_19_29'
p1551
NsS'ARG_1_23'
p1552
NsS'CALCULATED_5_13_28'
p1553
Nsg120
NsS'CALCULATED_4_15_26'
p1554
NsS'ARGLIST_11_16_30'
p1555
NsS'LIST_10'
p1556
Nsg136
NsS'ARG_2'
p1557
Nssg1519
I39
sg1520
S'S'
sbsS'composite_rule_table_with_actions'
p1558
(dp1559
g72
(lp1560
((lg236
tp1561
a((lp1562
g29
ag132
ag284
tp1563
asg42
(lp1564
((lp1565
g29
ag46
ag72
ag332
tp1566
a((lp1567
g46
ag11
ag367
tp1568
asg52
(lp1569
((lp1570
g56
ag120
ag52
ag391
tp1571
a((lg441
tp1572
asg81
(lp1573
((lg469
tp1574
a((lp1575
g85
ag113
ag521
tp1576
asg11
(lp1577
((lp1578
g29
ag132
ag543
tp1579
a((lg584
tp1580
a((lp1581
g16
ag120
ag52
ag665
ag612
tp1582
asg164
(lp1583
((lp1584
g132
ag673
tp1585
a((lp1586
g16
ag164
ag94
ag136
ag665
ag700
tp1587
a((lp1588
g126
ag164
ag759
tp1589
a((lp1590
g42
ag793
tp1591
asg113
(lp1592
((lp1593
g65
ag822
tp1594
a((lg882
tp1595
asg65
(lp1596
((lp1597
g46
ag984
ag164
ag94
ag136
ag81
ag934
tp1598
asg136
(lp1599
((lg1000
tp1600
a((lp1601
g140
ag164
ag94
ag136
ag1028
tp1602
a((lp1603
g126
ag164
ag94
ag136
ag1087
tp1604
asg94
(lp1605
((lg1146
tp1606
a((lp1607
g98
ag164
ag94
ag1174
tp1608
a((lp1609
g104
ag164
ag94
ag1224
tp1610
asg120
(lp1611
((lp1612
g42
ag151
ag1274
tp1613
a((lp1614
g164
ag94
ag136
ag1298
tp1615
asg151
(lp1616
((lp1617
g155
ag42
ag1345
tp1618
a((lg1396
tp1619
assS'actions_table'
p1620
(dp1621
g604
g584
sg1166
g1146
sg872
g822
sg812
g793
sg692
g673
sg783
g759
sg743
g700
sg1212
g1174
sg1286
g1274
sg1416
g1396
sg381
g367
sg533
g521
sg429
g391
sg1331
g1298
sg978
g934
sg1386
g1345
sg322
g284
sg574
g543
sg926
g882
sg270
g236
sg1262
g1224
sg1073
g1028
sg1132
g1087
sg513
g469
sg461
g441
sg355
g332
sg1020
g1000
sg655
g612
ssS'normalized'
p1622
I01
sbsS'col_size'
p1623
I15
sS'follow_sets'
p1624
(dp1625
g8
g12
((lp1626
g753
ag138
ag96
ag144
ag54
ag102
ag83
ag153
a(iaperiot.cfgs
EmptyString
p1627
(dp1628
g10
g35
sbatRp1629
sg40
g12
((lp1630
g753
ag138
ag96
ag144
ag54
ag102
ag83
ag153
a(iaperiot.cfgs
EmptyString
p1631
(dp1632
g10
g35
sbatRp1633
sg50
g12
((lp1634
g663
a(iaperiot.cfgs
EmptyString
p1635
(dp1636
g10
g35
sbatRp1637
sg63
g12
((lp1638
(iaperiot.cfgs
EmptyString
p1639
(dp1640
g10
g35
sbatRp1641
sg70
g12
((lp1642
g753
ag138
ag96
ag144
ag54
ag102
ag83
ag153
a(iaperiot.cfgs
EmptyString
p1643
(dp1644
g10
g35
sbatRp1645
sg79
g12
((lp1646
(iaperiot.cfgs
EmptyString
p1647
(dp1648
g10
g35
sbatRp1649
sg92
g12
((lp1650
g54
ag753
ag138
ag144
ag83
a(iaperiot.cfgs
EmptyString
p1651
(dp1652
g10
g35
sbatRp1653
sg111
g12
((lp1654
(iaperiot.cfgs
EmptyString
p1655
(dp1656
g10
g35
sbatRp1657
sg118
g12
((lp1658
g663
ag54
a(iaperiot.cfgs
EmptyString
p1659
(dp1660
g10
g35
sbatRp1661
sg134
g12
((lp1662
g753
ag83
ag54
a(iaperiot.cfgs
EmptyString
p1663
(dp1664
g10
g35
sbatRp1665
sg149
g12
((lp1666
g663
ag54
a(iaperiot.cfgs
EmptyString
p1667
(dp1668
g10
g35
sbatRp1669
sg162
g12
((lp1670
g753
ag138
ag96
ag144
ag54
ag102
ag83
a(iaperiot.cfgs
EmptyString
p1671
(dp1672
g10
g35
sbatRp1673
ssg3
(dp1674
g8
(dp1675
g29
I8
sg665
I9
sg16
I10
sg140
I9
sg98
I9
sg126
I9
sg56
I9
sg104
I9
sg46
Nsg132
Nsg85
I9
sg155
I9
sg984
Nsg35
I9
ssg40
(dp1676
g29
I2
sg665
Nsg16
Nsg140
Nsg98
Nsg126
Nsg56
Nsg104
Nsg46
I3
sg132
Nsg85
Nsg155
Nsg984
Nsg35
Nssg50
(dp1677
g29
Nsg665
I5
sg16
Nsg140
Nsg98
Nsg126
Nsg56
I4
sg104
Nsg46
Nsg132
Nsg85
Nsg155
Nsg984
Nsg35
I5
ssg63
(dp1678
g29
Nsg665
Nsg16
Nsg140
Nsg98
Nsg126
Nsg56
Nsg104
Nsg46
I17
sg132
Nsg85
Nsg155
Nsg984
Nsg35
Nssg70
(dp1679
g29
I1
sg665
I0
sg16
Nsg140
I0
sg98
I0
sg126
I0
sg56
I0
sg104
I0
sg46
Nsg132
Nsg85
I0
sg155
I0
sg984
Nsg35
I0
ssg79
(dp1680
g29
Nsg665
Nsg16
Nsg140
Nsg98
Nsg126
Nsg56
Nsg104
Nsg46
Nsg132
Nsg85
I7
sg155
Nsg984
Nsg35
I6
ssg92
(dp1681
g29
Nsg665
I21
sg16
Nsg140
I21
sg98
I22
sg126
I21
sg56
I21
sg104
I23
sg46
Nsg132
Nsg85
I21
sg155
Nsg984
Nsg35
I21
ssg111
(dp1682
g29
Nsg665
Nsg16
Nsg140
Nsg98
Nsg126
Nsg56
Nsg104
Nsg46
I15
sg132
Nsg85
Nsg155
Nsg984
Nsg35
I16
ssg118
(dp1683
g29
I24
sg665
Nsg16
I25
sg140
Nsg98
Nsg126
I25
sg56
Nsg104
Nsg46
I24
sg132
I25
sg85
Nsg155
Nsg984
Nsg35
Nssg134
(dp1684
g29
Nsg665
I18
sg16
Nsg140
I19
sg98
Nsg126
I20
sg56
I18
sg104
Nsg46
Nsg132
Nsg85
I18
sg155
Nsg984
Nsg35
I18
ssg149
(dp1685
g29
Nsg665
I27
sg16
Nsg140
Nsg98
Nsg126
Nsg56
I27
sg104
Nsg46
Nsg132
Nsg85
Nsg155
I26
sg984
Nsg35
I27
ssg162
(dp1686
g29
I14
sg665
Nsg16
I12
sg140
Nsg98
Nsg126
I13
sg56
Nsg104
Nsg46
I14
sg132
I11
sg85
Nsg155
Nsg984
Nsg35
NsssS'word_first_sets'
p1687
g168
sbsS'lexer'
p1688
(iaperiot.lexer
Lexer
p1689
(dp1690
S'trie'
p1691
(iposse_tools.tries
Trie
p1692
(dp1693
S'pointer'
p1694
(lp1695
I0
a(dp1696
S'$'
(lp1697
I1
a(dp1698
ag29
asS')'
(lp1699
I9
a(dp1700
ag665
asS'('
(lp1701
I6
a(dp1702
ag16
asS'+'
(lp1703
I8
a(dp1704
ag140
asS'*'
(lp1705
I11
a(dp1706
ag98
asS'-'
(lp1707
I7
a(dp1708
ag126
asS','
(lp1709
I3
a(dp1710
ag56
asS'/'
(lp1711
I4
a(dp1712
ag104
asS';'
(lp1713
I10
a(dp1714
ag85
asS':'
(lp1715
I2
a(dp1716
ag155
asS'='
(lp1717
I5
a(dp1718
ag984
asaNasS'counter'
p1719
I11
sS'root'
p1720
g1695
sS'strings'
p1721
(dp1722
sbsS'string_indicator'
p1723
S'"'
sg22
I0
sS'tokens'
p1724
(lp1725
g29
ag155
ag56
ag104
ag984
ag16
ag126
ag140
ag665
ag85
ag98
asS'tab_size'
p1726
I4
sS'comment_indicator'
p1727
S'#'
sS'yield_newlines'
p1728
I00
sS'yield_indents'
p1729
I00
sbsS'rule_actions_module'
p1730
Nsg226
g227
sb.