(iaperiot.llparser
Parser
p1
(dp2
S'table'
p3
(iaperiot.llparser
ParsingTable
p4
(dp5
S'non_terminal_first_sets'
p6
(dp7
(iaperiot.cfgs
NonTerminal
p8
(dp9
S'sym'
p10
S'CALCULATED_5'
p11
sbc__builtin__
set
p12
((lp13
(iaperiot.cfgs
Terminal
p14
(dp15
g10
(iaperiot.lexer
Bracket
p16
(dp17
S'end_col'
p18
NsS'string'
p19
S'('
sS'symbolic_name'
p20
S'lpar'
p21
sS'pos'
p22
(NNNtp23
sS'value'
p24
S'('
sS'linenum'
p25
NsS'start_col'
p26
Nsbsba(iaperiot.cfgs
Terminal
p27
(dp28
g10
(iaperiot.lexer
Operator
p29
(dp30
g18
Nsg19
S'$'
sg20
S'absolute'
p31
sg22
(NNNtp32
sg24
S'$'
sg25
Nsg26
Nsbsba(iaperiot.cfgs
EmptyString
p33
(dp34
g10
(iaperiot.lexer
Token
p35
(dp36
g18
Nsg19
S'<the empty string>'
p37
sg20
g37
sg22
(NNNtp38
sg24
g37
sg25
Nsg26
NsbsbatRp39
s(iaperiot.cfgs
NonTerminal
p40
(dp41
g10
S'ARGLIST_12'
p42
sbg12
((lp43
(iaperiot.cfgs
Terminal
p44
(dp45
g10
(iaperiot.lexer
Operator
p46
(dp47
g18
Nsg19
S','
sg20
S'comma'
p48
sg22
(NNNtp49
sg24
S','
sg25
Nsg26
Nsbsba(iaperiot.cfgs
EmptyString
p50
(dp51
g10
g35
sbatRp52
s(iaperiot.cfgs
NonTerminal
p53
(dp54
g10
S'CALCULATED'
p55
sbg12
((lp56
(iaperiot.cfgs
Terminal
p57
(dp58
g10
caperiot.lexer
Identifier
p59
sba(iaperiot.cfgs
Terminal
p60
(dp61
g10
g29
sbatRp62
s(iaperiot.cfgs
NonTerminal
p63
(dp64
g10
S'FACTOR'
p65
sbg12
((lp66
g60
ag57
a(iaperiot.cfgs
Terminal
p67
(dp68
g10
g16
sba(iaperiot.cfgs
Terminal
p69
(dp70
g10
caperiot.lexer
NumberLiteral
p71
sba(iaperiot.cfgs
Terminal
p72
(dp73
g10
caperiot.lexer
StringLiteral
p74
sba(iaperiot.cfgs
Terminal
p75
(dp76
g10
(iaperiot.lexer
Operator
p77
(dp78
g18
Nsg19
S'-'
sg20
S'minus'
p79
sg22
(NNNtp80
sg24
S'-'
sg25
Nsg26
NsbsbatRp81
s(iaperiot.cfgs
NonTerminal
p82
(dp83
g10
S'LIST'
p84
sbg12
((lp85
(iaperiot.cfgs
Terminal
p86
(dp87
g10
g59
sbatRp88
s(iaperiot.cfgs
NonTerminal
p89
(dp90
g10
S'CALCULATED_4_15'
p91
sbg12
((lp92
(iaperiot.cfgs
Terminal
p93
(dp94
g10
g29
sba(iaperiot.cfgs
EmptyString
p95
(dp96
g10
g35
sbatRp97
s(iaperiot.cfgs
NonTerminal
p98
(dp99
g10
S'ARG_1'
p100
sbg12
((lp101
(iaperiot.cfgs
Terminal
p102
(dp103
g10
(iaperiot.lexer
Operator
p104
(dp105
g18
Nsg19
S':'
sg20
S'colon'
p106
sg22
(NNNtp107
sg24
S':'
sg25
Nsg26
Nsbsba(iaperiot.cfgs
EmptyString
p108
(dp109
g10
g35
sbatRp110
s(iaperiot.cfgs
NonTerminal
p111
(dp112
g10
S'TERM_0'
p113
sbg12
((lp114
(iaperiot.cfgs
Terminal
p115
(dp116
g10
(iaperiot.lexer
Operator
p117
(dp118
g18
Nsg19
S'*'
sg20
S'times'
p119
sg22
(NNNtp120
sg24
S'*'
sg25
Nsg26
Nsbsba(iaperiot.cfgs
Terminal
p121
(dp122
g10
(iaperiot.lexer
Operator
p123
(dp124
g18
Nsg19
S'/'
sg20
S'div'
p125
sg22
(NNNtp126
sg24
S'/'
sg25
Nsg26
Nsbsba(iaperiot.cfgs
EmptyString
p127
(dp128
g10
g35
sbatRp129
s(iaperiot.cfgs
NonTerminal
p130
(dp131
g10
S'LIST_11_17_27'
p132
sbg12
((lp133
(iaperiot.cfgs
Terminal
p134
(dp135
g10
(iaperiot.lexer
Operator
p136
(dp137
g18
Nsg19
S';'
sg20
S'semicolon'
p138
sg22
(NNNtp139
sg24
S';'
sg25
Nsg26
Nsbsba(iaperiot.cfgs
EmptyString
p140
(dp141
g10
g35
sbatRp142
s(iaperiot.cfgs
NonTerminal
p143
(dp144
g10
S'ARG'
p145
sbg12
((lp146
g60
ag67
ag75
ag57
ag69
ag72
atRp147
s(iaperiot.cfgs
NonTerminal
p148
(dp149
g10
S'LIST_11_17_27_38'
p150
sbg12
((lp151
g86
a(iaperiot.cfgs
EmptyString
p152
(dp153
g10
g35
sbatRp154
s(iaperiot.cfgs
NonTerminal
p155
(dp156
g10
S'EXPR_3'
p157
sbg12
((lp158
(iaperiot.cfgs
Terminal
p159
(dp160
g10
(iaperiot.lexer
Operator
p161
(dp162
g18
Nsg19
S'+'
sg20
S'plus'
p163
sg22
(NNNtp164
sg24
S'+'
sg25
Nsg26
Nsbsba(iaperiot.cfgs
Terminal
p165
(dp166
g10
g77
sba(iaperiot.cfgs
EmptyString
p167
(dp168
g10
g35
sbatRp169
ssS'first_sets'
p170
(g7
(lp171
g12
((lp172
g95
atRp173
ag12
((lp174
g93
atRp175
ag12
((lp176
g44
atRp177
ag12
((lp178
g50
atRp179
ag12
((lp180
g60
atRp181
ag12
((lp182
g57
atRp183
ag12
((lp184
g27
atRp185
ag12
((lp186
g33
atRp187
ag12
((lp188
g14
atRp189
ag12
((lp190
g69
atRp191
ag12
((lp192
g67
atRp193
ag12
((lp194
g75
atRp195
ag12
((lp196
g57
ag60
atRp197
ag12
((lp198
g72
atRp199
ag12
((lp200
g86
atRp201
ag12
((lp202
g152
atRp203
ag12
((lp204
g86
atRp205
ag12
((lp206
g102
atRp207
ag12
((lp208
g108
atRp209
ag12
((lp210
g127
atRp211
ag12
((lp212
g115
atRp213
ag12
((lp214
g121
atRp215
ag12
((lp216
g140
atRp217
ag12
((lp218
g134
atRp219
ag12
((lp220
g57
ag60
atRp221
ag12
((lp222
g60
ag67
ag75
ag69
ag57
ag72
atRp223
ag12
((lp224
g167
atRp225
ag12
((lp226
g159
atRp227
ag12
((lp228
g165
atRp229
atp230
sS'cfg'
p231
(iaperiot.cfgs
CFG
p232
(dp233
S'package_name'
p234
S'traxter_cfg'
p235
sS'rules'
p236
(lp237
(iaperiot.cfgs
Rule
p238
(dp239
S'action'
p240
(iaperiot.cfgs
PlamRuleAction
p241
(dp242
S'body'
p243
(iaperiot.plambda.plambda_ast
LambdaAbstraction
p244
(dp245
g243
(iaperiot.plambda.plambda_ast
LambdaAbstraction
p246
(dp247
g243
(iaperiot.plambda.plambda_ast
Application
p248
(dp249
S'function'
p250
(iaperiot.plambda.plambda_ast
LambdaAbstraction
p251
(dp252
g243
(iaperiot.plambda.plambda_ast
Constant
p253
(dp254
g24
S"parse_cellref(['cellref','ABS',x1.symbolic_name])"
p255
sbsS'params'
p256
(lp257
S'x0'
p258
aS'x1'
p259
asbsS'args'
p260
(lp261
(iaperiot.plambda.plambda_ast
Variable
p262
(dp263
S'name'
p264
S'z38'
p265
sba(iaperiot.plambda.plambda_ast
Variable
p266
(dp267
g264
S'_yyy'
p268
sbasbsg256
(lp269
g265
asbsg256
(lp270
g268
asbsS'term'
p271
(iaperiot.plambda.plambda_ast
LambdaAbstraction
p272
(dp273
g243
g244
sg256
(lp274
sbsg264
S'calculated_4_15'
p275
sg260
g274
sS'rule'
p276
NsS'crosslinks'
p277
(lp278
(I1
S'NonTerminal(CALCULATED_4_15) ->  EmptyStringSymbol : calculated_4_15'
tp279
asS'__name__'
p280
g275
sS'ocurrences'
p281
I1
sbsS'rhs'
p282
(lp283
g95
asS'lhs'
p284
(iaperiot.cfgs
NonTerminal
p285
(dp286
g10
g91
sbsba(iaperiot.cfgs
Rule
p287
(dp288
g240
(iaperiot.cfgs
PlamRuleAction
p289
(dp290
g243
(iaperiot.plambda.plambda_ast
LambdaAbstraction
p291
(dp292
g243
(iaperiot.plambda.plambda_ast
LambdaAbstraction
p293
(dp294
g243
(iaperiot.plambda.plambda_ast
Application
p295
(dp296
g250
(iaperiot.plambda.plambda_ast
LambdaAbstraction
p297
(dp298
g243
(iaperiot.plambda.plambda_ast
Constant
p299
(dp300
g24
S"parse_cellref(['cellref','ABS',x1.symbolic_name,'ABS',str(int(x3))])"
p301
sbsg256
(lp302
S'x0'
p303
aS'x1'
p304
aS'x2'
p305
aS'x3'
p306
asbsg260
(lp307
(iaperiot.plambda.plambda_ast
Variable
p308
(dp309
g264
S'z4'
p310
sba(iaperiot.plambda.plambda_ast
Variable
p311
(dp312
g264
S'z5'
p313
sba(iaperiot.plambda.plambda_ast
Variable
p314
(dp315
g264
S'x0'
p316
sba(iaperiot.plambda.plambda_ast
Variable
p317
(dp318
g264
S'x1'
p319
sbasbsg256
(lp320
g310
asbsg256
(lp321
g313
asbsg271
(iaperiot.plambda.plambda_ast
LambdaAbstraction
p322
(dp323
g243
g291
sg256
(lp324
S'x0'
p325
aS'x1'
p326
asbsg264
S'expansion_51'
p327
sg260
g324
sg276
Nsg277
(lp328
(I2
S"NonTerminal(CALCULATED_4_15) ->  Terminal(Operator('$', 'absolute')) Terminal(NumberLiteral) : expansion_51"
tp329
asg280
g327
sg281
I1
sbsg282
(lp330
g93
a(iaperiot.cfgs
Terminal
p331
(dp332
g10
g71
sbasg284
(iaperiot.cfgs
NonTerminal
p333
(dp334
g10
g91
sbsba(iaperiot.cfgs
Rule
p335
(dp336
g240
(iaperiot.cfgs
PlamRuleAction
p337
(dp338
g243
(iaperiot.plambda.plambda_ast
LambdaAbstraction
p339
(dp340
g243
(iaperiot.plambda.plambda_ast
Application
p341
(dp342
g250
(iaperiot.plambda.plambda_ast
LambdaAbstraction
p343
(dp344
g243
(iaperiot.plambda.plambda_ast
Constant
p345
(dp346
g24
S'[x0]+x2'
p347
sbsg256
(lp348
S'x0'
p349
aS'x1'
p350
aS'x2'
p351
asbsg260
(lp352
(iaperiot.plambda.plambda_ast
Variable
p353
(dp354
g264
S'z35'
p355
sba(iaperiot.plambda.plambda_ast
Variable
p356
(dp357
g264
S'x0'
p358
sba(iaperiot.plambda.plambda_ast
Application
p359
(dp360
g250
(iaperiot.plambda.plambda_ast
Variable
p361
(dp362
g264
S'x2'
p363
sbsg260
(lp364
(iaperiot.plambda.plambda_ast
Variable
p365
(dp366
g264
S'x1'
p367
sbasbasbsg256
(lp368
g355
asbsg271
(iaperiot.plambda.plambda_ast
LambdaAbstraction
p369
(dp370
g243
g339
sg256
(lp371
S'x0'
p372
aS'x1'
p373
aS'x2'
p374
asbsg264
S'expansion_49'
p375
sg260
g371
sg276
Nsg277
(lp376
(I3
S"NonTerminal(ARGLIST_12) ->  Terminal(Operator(',', 'comma')) NonTerminal(ARG) NonTerminal(ARGLIST_12) : expansion_49"
tp377
asg280
g375
sg281
I1
sbsg282
(lp378
g44
a(iaperiot.cfgs
NonTerminal
p379
(dp380
g10
g145
sba(iaperiot.cfgs
NonTerminal
p381
(dp382
g10
g42
sbasg284
(iaperiot.cfgs
NonTerminal
p383
(dp384
g10
g42
sbsba(iaperiot.cfgs
Rule
p385
(dp386
g240
(iaperiot.cfgs
PlamRuleAction
p387
(dp388
g243
(iaperiot.plambda.plambda_ast
LambdaAbstraction
p389
(dp390
g243
(iaperiot.plambda.plambda_ast
Application
p391
(dp392
g250
(iaperiot.plambda.plambda_ast
LambdaAbstraction
p393
(dp394
g243
(iaperiot.plambda.plambda_ast
Constant
p395
(dp396
g24
S'[x0]'
p397
sbsg256
(lp398
S'x0'
p399
asbsg260
(lp400
(iaperiot.plambda.plambda_ast
Variable
p401
(dp402
g264
g268
sbasbsg256
(lp403
g268
asbsg271
(iaperiot.plambda.plambda_ast
LambdaAbstraction
p404
(dp405
g243
g389
sg256
(lp406
sbsg264
S'arglist_12_1'
p407
sg260
g406
sg276
Nsg277
(lp408
(I4
S'NonTerminal(ARGLIST_12) ->  EmptyStringSymbol : arglist_12_1'
tp409
asg280
g407
sg281
I1
sbsg282
(lp410
g50
asg284
(iaperiot.cfgs
NonTerminal
p411
(dp412
g10
g42
sbsba(iaperiot.cfgs
Rule
p413
(dp414
g240
(iaperiot.cfgs
PlamRuleAction
p415
(dp416
g243
(iaperiot.plambda.plambda_ast
Application
p417
(dp418
g250
(iaperiot.plambda.plambda_ast
Application
p419
(dp420
g250
(iaperiot.plambda.plambda_ast
Variable
p421
(dp422
g264
S'x2'
p423
sbsg260
(lp424
(iaperiot.plambda.plambda_ast
Variable
p425
(dp426
g264
S'x1'
p427
sbasbsg260
(lp428
(iaperiot.plambda.plambda_ast
Variable
p429
(dp430
g264
S'x0'
p431
sbasbsg271
(iaperiot.plambda.plambda_ast
LambdaAbstraction
p432
(dp433
g243
g417
sg256
(lp434
S'x0'
p435
aS'x1'
p436
aS'x2'
p437
asbsg264
S'expansion_41'
p438
sg260
g434
sg276
Nsg277
(lp439
(I5
S"NonTerminal(CALCULATED) ->  Terminal(Operator('$', 'absolute')) Terminal(Identifier) NonTerminal(CALCULATED_4_15) : expansion_41"
tp440
asg280
g438
sg281
I1
sbsg282
(lp441
g60
a(iaperiot.cfgs
Terminal
p442
(dp443
g10
g59
sba(iaperiot.cfgs
NonTerminal
p444
(dp445
g10
g91
sbasg284
(iaperiot.cfgs
NonTerminal
p446
(dp447
g10
g55
sbsba(iaperiot.cfgs
Rule
p448
(dp449
g240
(iaperiot.cfgs
PlamRuleAction
p450
(dp451
g243
(iaperiot.plambda.plambda_ast
Application
p452
(dp453
g250
(iaperiot.plambda.plambda_ast
Variable
p454
(dp455
g264
S'continuation'
p456
sbsg260
(lp457
(iaperiot.plambda.plambda_ast
Variable
p458
(dp459
g264
S'first'
p460
sbasbsg271
(iaperiot.plambda.plambda_ast
LambdaAbstraction
p461
(dp462
g243
g452
sg256
(lp463
g460
ag456
asbsg264
S'new_calculated_action_2'
p464
sg260
g463
sg276
Nsg277
(lp465
(I6
S'NonTerminal(CALCULATED) ->  Terminal(Identifier) NonTerminal(CALCULATED_5) : new_calculated_action_2'
tp466
asg280
g464
sg281
I1
sbsg282
(lp467
g57
a(iaperiot.cfgs
NonTerminal
p468
(dp469
g10
g11
sbasg284
(iaperiot.cfgs
NonTerminal
p470
(dp471
g10
g55
sbsba(iaperiot.cfgs
Rule
p472
(dp473
g240
(iaperiot.cfgs
PlamRuleAction
p474
(dp475
g243
(iaperiot.plambda.plambda_ast
LambdaAbstraction
p476
(dp477
g243
(iaperiot.plambda.plambda_ast
Application
p478
(dp479
g250
(iaperiot.plambda.plambda_ast
LambdaAbstraction
p480
(dp481
g243
(iaperiot.plambda.plambda_ast
Constant
p482
(dp483
g24
S"parse_cellref(['cellref',x0.symbolic_name,'ABS',str(int(x2))])"
p484
sbsg256
(lp485
S'x0'
p486
aS'x1'
p487
aS'x2'
p488
asbsg260
(lp489
(iaperiot.plambda.plambda_ast
Variable
p490
(dp491
g264
S'z33'
p492
sba(iaperiot.plambda.plambda_ast
Variable
p493
(dp494
g264
S'x0'
p495
sba(iaperiot.plambda.plambda_ast
Variable
p496
(dp497
g264
S'x1'
p498
sbasbsg256
(lp499
g492
asbsg271
(iaperiot.plambda.plambda_ast
LambdaAbstraction
p500
(dp501
g243
g476
sg256
(lp502
S'x0'
p503
aS'x1'
p504
asbsg264
S'expansion_39'
p505
sg260
g502
sg276
Nsg277
(lp506
(I7
S"NonTerminal(CALCULATED_5) ->  Terminal(Operator('$', 'absolute')) Terminal(NumberLiteral) : expansion_39"
tp507
asg280
g505
sg281
I1
sbsg282
(lp508
g27
a(iaperiot.cfgs
Terminal
p509
(dp510
g10
g71
sbasg284
(iaperiot.cfgs
NonTerminal
p511
(dp512
g10
g11
sbsba(iaperiot.cfgs
Rule
p513
(dp514
g240
(iaperiot.cfgs
PlamRuleAction
p515
(dp516
g243
(iaperiot.plambda.plambda_ast
LambdaAbstraction
p517
(dp518
g243
(iaperiot.plambda.plambda_ast
Application
p519
(dp520
g250
(iaperiot.plambda.plambda_ast
LambdaAbstraction
p521
(dp522
g243
(iaperiot.plambda.plambda_ast
Constant
p523
(dp524
g24
S"parse_cellref(['cellref',x0.symbolic_name])"
p525
sbsg256
(lp526
S'x0'
p527
asbsg260
(lp528
(iaperiot.plambda.plambda_ast
Variable
p529
(dp530
g264
g268
sbasbsg256
(lp531
g268
asbsg271
(iaperiot.plambda.plambda_ast
LambdaAbstraction
p532
(dp533
g243
g517
sg256
(lp534
sbsg264
S'calculated_5_1'
p535
sg260
g534
sg276
Nsg277
(lp536
(I8
S'NonTerminal(CALCULATED_5) ->  EmptyStringSymbol : calculated_5_1'
tp537
asg280
g535
sg281
I1
sbsg282
(lp538
g33
asg284
(iaperiot.cfgs
NonTerminal
p539
(dp540
g10
g11
sbsba(iaperiot.cfgs
Rule
p541
(dp542
g240
(iaperiot.cfgs
PlamRuleAction
p543
(dp544
g243
(iaperiot.plambda.plambda_ast
LambdaAbstraction
p545
(dp546
g243
(iaperiot.plambda.plambda_ast
Application
p547
(dp548
g250
(iaperiot.plambda.plambda_ast
LambdaAbstraction
p549
(dp550
g243
(iaperiot.plambda.plambda_ast
Constant
p551
(dp552
g24
S"['funcall',x0.symbolic_name,x2]"
p553
sbsg256
(lp554
S'x0'
p555
aS'x1'
p556
aS'x2'
p557
aS'x3'
p558
asbsg260
(lp559
(iaperiot.plambda.plambda_ast
Variable
p560
(dp561
g264
S'z1'
p562
sba(iaperiot.plambda.plambda_ast
Variable
p563
(dp564
g264
S'x0'
p565
sba(iaperiot.plambda.plambda_ast
Application
p566
(dp567
g250
(iaperiot.plambda.plambda_ast
Variable
p568
(dp569
g264
S'x2'
p570
sbsg260
(lp571
(iaperiot.plambda.plambda_ast
Variable
p572
(dp573
g264
S'x1'
p574
sbasba(iaperiot.plambda.plambda_ast
Variable
p575
(dp576
g264
S'x3'
p577
sbasbsg256
(lp578
g562
asbsg271
(iaperiot.plambda.plambda_ast
LambdaAbstraction
p579
(dp580
g243
g545
sg256
(lp581
S'x0'
p582
aS'x1'
p583
aS'x2'
p584
aS'x3'
p585
asbsg264
S'expansion_44'
p586
sg260
g581
sg276
Nsg277
(lp587
(I9
S"NonTerminal(CALCULATED_5) ->  Terminal(Bracket('(', 'lpar')) NonTerminal(ARG) NonTerminal(ARGLIST_12) Terminal(Bracket(')', 'rpar')) : expansion_44"
tp588
asg280
g586
sg281
I1
sbsg282
(lp589
g14
a(iaperiot.cfgs
NonTerminal
p590
(dp591
g10
g145
sba(iaperiot.cfgs
NonTerminal
p592
(dp593
g10
g42
sba(iaperiot.cfgs
Terminal
p594
(dp595
g10
(iaperiot.lexer
Bracket
p596
(dp597
g18
Nsg19
S')'
sg20
S'rpar'
p598
sg22
(NNNtp599
sg24
S')'
sg25
Nsg26
Nsbsbasg284
(iaperiot.cfgs
NonTerminal
p600
(dp601
g10
g11
sbsba(iaperiot.cfgs
Rule
p602
(dp603
g240
(iaperiot.cfgs
PlamRuleAction
p604
(dp605
g243
(iaperiot.plambda.plambda_ast
Application
p606
(dp607
g250
(iaperiot.plambda.plambda_ast
LambdaAbstraction
p608
(dp609
g243
(iaperiot.plambda.plambda_ast
Constant
p610
(dp611
g24
S'x0.val()'
p612
sbsg256
(lp613
S'x0'
p614
asbsg260
(lp615
(iaperiot.plambda.plambda_ast
Variable
p616
(dp617
g264
S'x0'
p618
sbasbsg271
(iaperiot.plambda.plambda_ast
LambdaAbstraction
p619
(dp620
g243
g606
sg256
(lp621
S'x0'
p622
asbsg264
S'expansion_47'
p623
sg260
g621
sg276
Nsg277
(lp624
(I10
S'NonTerminal(FACTOR) ->  Terminal(NumberLiteral) : expansion_47'
tp625
asg280
g623
sg281
I1
sbsg282
(lp626
g69
asg284
(iaperiot.cfgs
NonTerminal
p627
(dp628
g10
g65
sbsba(iaperiot.cfgs
Rule
p629
(dp630
g240
(iaperiot.cfgs
PlamRuleAction
p631
(dp632
g243
(iaperiot.plambda.plambda_ast
Application
p633
(dp634
g250
(iaperiot.plambda.plambda_ast
LambdaAbstraction
p635
(dp636
g243
(iaperiot.plambda.plambda_ast
Constant
p637
(dp638
g24
S"['group',x1]"
p639
sbsg256
(lp640
S'x0'
p641
aS'x1'
p642
aS'x2'
p643
asbsg260
(lp644
(iaperiot.plambda.plambda_ast
Variable
p645
(dp646
g264
S'x0'
p647
sba(iaperiot.plambda.plambda_ast
Application
p648
(dp649
g250
(iaperiot.plambda.plambda_ast
Variable
p650
(dp651
g264
S'x3'
p652
sbsg260
(lp653
(iaperiot.plambda.plambda_ast
Application
p654
(dp655
g250
(iaperiot.plambda.plambda_ast
Variable
p656
(dp657
g264
S'x2'
p658
sbsg260
(lp659
(iaperiot.plambda.plambda_ast
Variable
p660
(dp661
g264
S'x1'
p662
sbasbasba(iaperiot.plambda.plambda_ast
Variable
p663
(dp664
g264
S'x4'
p665
sbasbsg271
(iaperiot.plambda.plambda_ast
LambdaAbstraction
p666
(dp667
g243
g633
sg256
(lp668
S'x0'
p669
aS'x1'
p670
aS'x2'
p671
aS'x3'
p672
aS'x4'
p673
asbsg264
S'expansion_48'
p674
sg260
g668
sg276
Nsg277
(lp675
(I11
S"NonTerminal(FACTOR) ->  Terminal(Bracket('(', 'lpar')) NonTerminal(FACTOR) NonTerminal(TERM_0) NonTerminal(EXPR_3) Terminal(Bracket(')', 'rpar')) : expansion_48"
tp676
asg280
g674
sg281
I1
sbsg282
(lp677
g67
a(iaperiot.cfgs
NonTerminal
p678
(dp679
g10
g65
sba(iaperiot.cfgs
NonTerminal
p680
(dp681
g10
g113
sba(iaperiot.cfgs
NonTerminal
p682
(dp683
g10
g157
sba(iaperiot.cfgs
Terminal
p684
(dp685
g10
g596
sbasg284
(iaperiot.cfgs
NonTerminal
p686
(dp687
g10
g65
sbsba(iaperiot.cfgs
Rule
p688
(dp689
g240
(iaperiot.cfgs
PlamRuleAction
p690
(dp691
g243
(iaperiot.plambda.plambda_ast
Application
p692
(dp693
g250
(iaperiot.plambda.plambda_ast
LambdaAbstraction
p694
(dp695
g243
(iaperiot.plambda.plambda_ast
Constant
p696
(dp697
g24
S'-x1'
p698
sbsg256
(lp699
S'x0'
p700
aS'x1'
p701
asbsg260
(lp702
(iaperiot.plambda.plambda_ast
Variable
p703
(dp704
g264
S'x0'
p705
sba(iaperiot.plambda.plambda_ast
Variable
p706
(dp707
g264
S'x1'
p708
sbasbsg271
(iaperiot.plambda.plambda_ast
LambdaAbstraction
p709
(dp710
g243
g692
sg256
(lp711
S'x0'
p712
aS'x1'
p713
asbsg264
S'expansion_45'
p714
sg260
g711
sg276
Nsg277
(lp715
(I12
S"NonTerminal(FACTOR) ->  Terminal(Operator('-', 'minus')) NonTerminal(FACTOR) : expansion_45"
tp716
asg280
g714
sg281
I1
sbsg282
(lp717
g75
a(iaperiot.cfgs
NonTerminal
p718
(dp719
g10
g65
sbasg284
(iaperiot.cfgs
NonTerminal
p720
(dp721
g10
g65
sbsba(iaperiot.cfgs
Rule
p722
(dp723
g240
(iaperiot.cfgs
PlamRuleAction
p724
(dp725
g243
(iaperiot.plambda.plambda_ast
Application
p726
(dp727
g250
(iaperiot.plambda.plambda_ast
LambdaAbstraction
p728
(dp729
g243
(iaperiot.plambda.plambda_ast
Constant
p730
(dp731
g24
S'x0'
p732
sbsg256
(lp733
S'x0'
p734
asbsg260
(lp735
(iaperiot.plambda.plambda_ast
Variable
p736
(dp737
g264
S'x0'
p738
sbasbsg271
(iaperiot.plambda.plambda_ast
LambdaAbstraction
p739
(dp740
g243
g726
sg256
(lp741
S'x0'
p742
asbsg264
S'expansion_46'
p743
sg260
g741
sg276
Nsg277
(lp744
(I13
S'NonTerminal(FACTOR) ->  NonTerminal(CALCULATED) : expansion_46'
tp745
asg280
g743
sg281
I1
sbsg282
(lp746
(iaperiot.cfgs
NonTerminal
p747
(dp748
g10
g55
sbasg284
(iaperiot.cfgs
NonTerminal
p749
(dp750
g10
g65
sbsba(iaperiot.cfgs
Rule
p751
(dp752
g240
(iaperiot.cfgs
PlamRuleAction
p753
(dp754
g243
(iaperiot.plambda.plambda_ast
Application
p755
(dp756
g250
(iaperiot.plambda.plambda_ast
LambdaAbstraction
p757
(dp758
g243
(iaperiot.plambda.plambda_ast
Constant
p759
(dp760
g24
S"[ 'string', x0]"
p761
sbsg256
(lp762
S'x0'
p763
asbsg260
(lp764
(iaperiot.plambda.plambda_ast
Variable
p765
(dp766
g264
S'x0'
p767
sbasbsg271
(iaperiot.plambda.plambda_ast
LambdaAbstraction
p768
(dp769
g243
g755
sg256
(lp770
S'x0'
p771
asbsg264
S'expansion_10'
p772
sg260
g770
sg276
Nsg277
(lp773
(I14
S'NonTerminal(FACTOR) ->  Terminal(StringLiteral) : expansion_10'
tp774
asg280
g772
sg281
I1
sbsg282
(lp775
g72
asg284
(iaperiot.cfgs
NonTerminal
p776
(dp777
g10
g65
sbsba(iaperiot.cfgs
Rule
p778
(dp779
g240
(iaperiot.cfgs
PlamRuleAction
p780
(dp781
g243
(iaperiot.plambda.plambda_ast
LambdaAbstraction
p782
(dp783
g243
(iaperiot.plambda.plambda_ast
LambdaAbstraction
p784
(dp785
g243
(iaperiot.plambda.plambda_ast
LambdaAbstraction
p786
(dp787
g243
(iaperiot.plambda.plambda_ast
LambdaAbstraction
p788
(dp789
g243
(iaperiot.plambda.plambda_ast
Application
p790
(dp791
g250
(iaperiot.plambda.plambda_ast
LambdaAbstraction
p792
(dp793
g243
(iaperiot.plambda.plambda_ast
Constant
p794
(dp795
g24
S'[x0]+x2'
p796
sbsg256
(lp797
S'x0'
p798
aS'x1'
p799
aS'x2'
p800
asbsg260
(lp801
(iaperiot.plambda.plambda_ast
Application
p802
(dp803
g250
(iaperiot.plambda.plambda_ast
LambdaAbstraction
p804
(dp805
g243
(iaperiot.plambda.plambda_ast
Constant
p806
(dp807
g24
S'[x0,x2]'
p808
sbsg256
(lp809
S'x0'
p810
aS'x1'
p811
aS'x2'
p812
asbsg260
(lp813
(iaperiot.plambda.plambda_ast
Variable
p814
(dp815
g264
S'z14'
p816
sba(iaperiot.plambda.plambda_ast
Variable
p817
(dp818
g264
S'z15'
p819
sba(iaperiot.plambda.plambda_ast
Variable
p820
(dp821
g264
S'z16'
p822
sbasba(iaperiot.plambda.plambda_ast
Variable
p823
(dp824
g264
S'z47'
p825
sba(iaperiot.plambda.plambda_ast
Variable
p826
(dp827
g264
S'x0'
p828
sbasbsg256
(lp829
g816
asbsg256
(lp830
g819
asbsg256
(lp831
g822
asbsg256
(lp832
g825
asbsg271
(iaperiot.plambda.plambda_ast
LambdaAbstraction
p833
(dp834
g243
g782
sg256
(lp835
S'x0'
p836
asbsg264
S'expansion_11'
p837
sg260
g835
sg276
Nsg277
(lp838
(I15
S'NonTerminal(LIST_11_17_27_38) ->  NonTerminal(LIST) : expansion_11'
tp839
asg280
g837
sg281
I1
sbsg282
(lp840
(iaperiot.cfgs
NonTerminal
p841
(dp842
g10
g84
sbasg284
(iaperiot.cfgs
NonTerminal
p843
(dp844
g10
g150
sbsba(iaperiot.cfgs
Rule
p845
(dp846
g240
(iaperiot.cfgs
PlamRuleAction
p847
(dp848
g243
(iaperiot.plambda.plambda_ast
LambdaAbstraction
p849
(dp850
g243
(iaperiot.plambda.plambda_ast
LambdaAbstraction
p851
(dp852
g243
(iaperiot.plambda.plambda_ast
LambdaAbstraction
p853
(dp854
g243
(iaperiot.plambda.plambda_ast
LambdaAbstraction
p855
(dp856
g243
(iaperiot.plambda.plambda_ast
Application
p857
(dp858
g250
(iaperiot.plambda.plambda_ast
LambdaAbstraction
p859
(dp860
g243
(iaperiot.plambda.plambda_ast
Constant
p861
(dp862
g24
S'[x0]'
p863
sbsg256
(lp864
S'x0'
p865
aS'x1'
p866
asbsg260
(lp867
(iaperiot.plambda.plambda_ast
Application
p868
(dp869
g250
(iaperiot.plambda.plambda_ast
LambdaAbstraction
p870
(dp871
g243
g806
sg256
g809
sbsg260
(lp872
(iaperiot.plambda.plambda_ast
Variable
p873
(dp874
g264
S'z21'
p875
sba(iaperiot.plambda.plambda_ast
Variable
p876
(dp877
g264
S'z22'
p878
sba(iaperiot.plambda.plambda_ast
Variable
p879
(dp880
g264
S'z45'
p881
sbasba(iaperiot.plambda.plambda_ast
Variable
p882
(dp883
g264
g268
sbasbsg256
(lp884
g875
asbsg256
(lp885
g878
asbsg256
(lp886
g881
asbsg256
(lp887
g268
asbsg271
(iaperiot.plambda.plambda_ast
LambdaAbstraction
p888
(dp889
g243
g849
sg256
(lp890
sbsg264
S'list_11_17_27_38_1'
p891
sg260
g890
sg276
Nsg277
(lp892
(I16
S'NonTerminal(LIST_11_17_27_38) ->  EmptyStringSymbol : list_11_17_27_38_1'
tp893
asg280
g891
sg281
I1
sbsg282
(lp894
g152
asg284
(iaperiot.cfgs
NonTerminal
p895
(dp896
g10
g150
sbsba(iaperiot.cfgs
Rule
p897
(dp898
g240
(iaperiot.cfgs
PlamRuleAction
p899
(dp900
g243
(iaperiot.plambda.plambda_ast
Application
p901
(dp902
g250
(iaperiot.plambda.plambda_ast
Application
p903
(dp904
g250
(iaperiot.plambda.plambda_ast
Application
p905
(dp906
g250
(iaperiot.plambda.plambda_ast
Variable
p907
(dp908
g264
S'x5'
p909
sbsg260
(lp910
(iaperiot.plambda.plambda_ast
Application
p911
(dp912
g250
(iaperiot.plambda.plambda_ast
Variable
p913
(dp914
g264
S'x4'
p915
sbsg260
(lp916
(iaperiot.plambda.plambda_ast
Application
p917
(dp918
g250
(iaperiot.plambda.plambda_ast
Variable
p919
(dp920
g264
S'x3'
p921
sbsg260
(lp922
(iaperiot.plambda.plambda_ast
Variable
p923
(dp924
g264
S'x2'
p925
sbasbasbasbsg260
(lp926
(iaperiot.plambda.plambda_ast
Variable
p927
(dp928
g264
S'x1'
p929
sbasbsg260
(lp930
(iaperiot.plambda.plambda_ast
Variable
p931
(dp932
g264
S'x0'
p933
sbasbsg271
(iaperiot.plambda.plambda_ast
LambdaAbstraction
p934
(dp935
g243
g901
sg256
(lp936
S'x0'
p937
aS'x1'
p938
aS'x2'
p939
aS'x3'
p940
aS'x4'
p941
aS'x5'
p942
asbsg264
S'expansion_55'
p943
sg260
g936
sg276
Nsg277
(lp944
(I17
S"NonTerminal(LIST) ->  Terminal(Identifier) Terminal(Operator('=', 'equal')) NonTerminal(FACTOR) NonTerminal(TERM_0) NonTerminal(EXPR_3) NonTerminal(LIST_11_17_27) : expansion_55"
tp945
asg280
g943
sg281
I1
sbsg282
(lp946
g86
a(iaperiot.cfgs
Terminal
p947
(dp948
g10
(iaperiot.lexer
Operator
p949
(dp950
g18
Nsg19
S'='
sg20
S'equal'
p951
sg22
(NNNtp952
sg24
S'='
sg25
Nsg26
Nsbsba(iaperiot.cfgs
NonTerminal
p953
(dp954
g10
g65
sba(iaperiot.cfgs
NonTerminal
p955
(dp956
g10
g113
sba(iaperiot.cfgs
NonTerminal
p957
(dp958
g10
g157
sba(iaperiot.cfgs
NonTerminal
p959
(dp960
g10
g132
sbasg284
(iaperiot.cfgs
NonTerminal
p961
(dp962
g10
g84
sbsba(iaperiot.cfgs
Rule
p963
(dp964
g240
(iaperiot.cfgs
PlamRuleAction
p965
(dp966
g243
(iaperiot.plambda.plambda_ast
LambdaAbstraction
p967
(dp968
g243
(iaperiot.plambda.plambda_ast
Application
p969
(dp970
g250
(iaperiot.plambda.plambda_ast
LambdaAbstraction
p971
(dp972
g243
(iaperiot.plambda.plambda_ast
Constant
p973
(dp974
g24
S'x0'
p975
sbsg256
(lp976
S'x0'
p977
asbsg260
(lp978
(iaperiot.plambda.plambda_ast
Application
p979
(dp980
g250
(iaperiot.plambda.plambda_ast
LambdaAbstraction
p981
(dp982
g243
(iaperiot.plambda.plambda_ast
Constant
p983
(dp984
g24
S"['range',x0,x2]"
p985
sbsg256
(lp986
S'x0'
p987
aS'x1'
p988
aS'x2'
p989
asbsg260
(lp990
(iaperiot.plambda.plambda_ast
Variable
p991
(dp992
g264
S'z12'
p993
sba(iaperiot.plambda.plambda_ast
Variable
p994
(dp995
g264
S'x0'
p996
sba(iaperiot.plambda.plambda_ast
Variable
p997
(dp998
g264
S'x1'
p999
sbasbasbsg256
(lp1000
g993
asbsg271
(iaperiot.plambda.plambda_ast
LambdaAbstraction
p1001
(dp1002
g243
g967
sg256
(lp1003
S'x0'
p1004
aS'x1'
p1005
asbsg264
S'expansion_56'
p1006
sg260
g1003
sg276
Nsg277
(lp1007
(I18
S"NonTerminal(ARG_1) ->  Terminal(Operator(':', 'colon')) NonTerminal(CALCULATED) : expansion_56"
tp1008
asg280
g1006
sg281
I1
sbsg282
(lp1009
g102
a(iaperiot.cfgs
NonTerminal
p1010
(dp1011
g10
g55
sbasg284
(iaperiot.cfgs
NonTerminal
p1012
(dp1013
g10
g100
sbsba(iaperiot.cfgs
Rule
p1014
(dp1015
g240
(iaperiot.cfgs
PlamRuleAction
p1016
(dp1017
g243
(iaperiot.plambda.plambda_ast
LambdaAbstraction
p1018
(dp1019
g243
(iaperiot.plambda.plambda_ast
Application
p1020
(dp1021
g250
(iaperiot.plambda.plambda_ast
LambdaAbstraction
p1022
(dp1023
g243
(iaperiot.plambda.plambda_ast
Constant
p1024
(dp1025
g24
S'x0'
p1026
sbsg256
(lp1027
S'x0'
p1028
asbsg260
(lp1029
(iaperiot.plambda.plambda_ast
Variable
p1030
(dp1031
g264
g268
sbasbsg256
(lp1032
g268
asbsg271
(iaperiot.plambda.plambda_ast
LambdaAbstraction
p1033
(dp1034
g243
g1018
sg256
(lp1035
sbsg264
S'arg_1_1'
p1036
sg260
g1035
sg276
Nsg277
(lp1037
(I19
S'NonTerminal(ARG_1) ->  EmptyStringSymbol : arg_1_1'
tp1038
asg280
g1036
sg281
I1
sbsg282
(lp1039
g108
asg284
(iaperiot.cfgs
NonTerminal
p1040
(dp1041
g10
g100
sbsba(iaperiot.cfgs
Rule
p1042
(dp1043
g240
(iaperiot.cfgs
PlamRuleAction
p1044
(dp1045
g243
(iaperiot.plambda.plambda_ast
LambdaAbstraction
p1046
(dp1047
g243
(iaperiot.plambda.plambda_ast
Application
p1048
(dp1049
g250
(iaperiot.plambda.plambda_ast
LambdaAbstraction
p1050
(dp1051
g243
(iaperiot.plambda.plambda_ast
Constant
p1052
(dp1053
g24
S'x0'
p1054
sbsg256
(lp1055
S'x0'
p1056
asbsg260
(lp1057
(iaperiot.plambda.plambda_ast
Variable
p1058
(dp1059
g264
g268
sbasbsg256
(lp1060
g268
asbsg271
(iaperiot.plambda.plambda_ast
LambdaAbstraction
p1061
(dp1062
g243
g1046
sg256
(lp1063
sbsg264
S'term_0'
p1064
sg260
g1063
sg276
Nsg277
(lp1065
(I20
S'NonTerminal(TERM_0) ->  EmptyStringSymbol : term_0'
tp1066
asg280
g1064
sg281
I1
sbsg282
(lp1067
g127
asg284
(iaperiot.cfgs
NonTerminal
p1068
(dp1069
g10
g113
sbsba(iaperiot.cfgs
Rule
p1070
(dp1071
g240
(iaperiot.cfgs
PlamRuleAction
p1072
(dp1073
g243
(iaperiot.plambda.plambda_ast
LambdaAbstraction
p1074
(dp1075
g243
(iaperiot.plambda.plambda_ast
Application
p1076
(dp1077
g250
(iaperiot.plambda.plambda_ast
LambdaAbstraction
p1078
(dp1079
g243
(iaperiot.plambda.plambda_ast
Constant
p1080
(dp1081
g24
S"['*',x0,x2]"
p1082
sbsg256
(lp1083
S'x0'
p1084
aS'x1'
p1085
aS'x2'
p1086
asbsg260
(lp1087
(iaperiot.plambda.plambda_ast
Variable
p1088
(dp1089
g264
S'z18'
p1090
sba(iaperiot.plambda.plambda_ast
Variable
p1091
(dp1092
g264
S'x0'
p1093
sba(iaperiot.plambda.plambda_ast
Application
p1094
(dp1095
g250
(iaperiot.plambda.plambda_ast
Variable
p1096
(dp1097
g264
S'x2'
p1098
sbsg260
(lp1099
(iaperiot.plambda.plambda_ast
Variable
p1100
(dp1101
g264
S'x1'
p1102
sbasbasbsg256
(lp1103
g1090
asbsg271
(iaperiot.plambda.plambda_ast
LambdaAbstraction
p1104
(dp1105
g243
g1074
sg256
(lp1106
S'x0'
p1107
aS'x1'
p1108
aS'x2'
p1109
asbsg264
S'expansion_30'
p1110
sg260
g1106
sg276
Nsg277
(lp1111
(I21
S"NonTerminal(TERM_0) ->  Terminal(Operator('*', 'times')) NonTerminal(FACTOR) NonTerminal(TERM_0) : expansion_30"
tp1112
asg280
g1110
sg281
I1
sbsg282
(lp1113
g115
a(iaperiot.cfgs
NonTerminal
p1114
(dp1115
g10
g65
sba(iaperiot.cfgs
NonTerminal
p1116
(dp1117
g10
g113
sbasg284
(iaperiot.cfgs
NonTerminal
p1118
(dp1119
g10
g113
sbsba(iaperiot.cfgs
Rule
p1120
(dp1121
g240
(iaperiot.cfgs
PlamRuleAction
p1122
(dp1123
g243
(iaperiot.plambda.plambda_ast
LambdaAbstraction
p1124
(dp1125
g243
(iaperiot.plambda.plambda_ast
Application
p1126
(dp1127
g250
(iaperiot.plambda.plambda_ast
LambdaAbstraction
p1128
(dp1129
g243
(iaperiot.plambda.plambda_ast
Constant
p1130
(dp1131
g24
S"['/',x0,x2]"
p1132
sbsg256
(lp1133
S'x0'
p1134
aS'x1'
p1135
aS'x2'
p1136
asbsg260
(lp1137
(iaperiot.plambda.plambda_ast
Variable
p1138
(dp1139
g264
S'z8'
p1140
sba(iaperiot.plambda.plambda_ast
Variable
p1141
(dp1142
g264
S'x0'
p1143
sba(iaperiot.plambda.plambda_ast
Application
p1144
(dp1145
g250
(iaperiot.plambda.plambda_ast
Variable
p1146
(dp1147
g264
S'x2'
p1148
sbsg260
(lp1149
(iaperiot.plambda.plambda_ast
Variable
p1150
(dp1151
g264
S'x1'
p1152
sbasbasbsg256
(lp1153
g1140
asbsg271
(iaperiot.plambda.plambda_ast
LambdaAbstraction
p1154
(dp1155
g243
g1124
sg256
(lp1156
S'x0'
p1157
aS'x1'
p1158
aS'x2'
p1159
asbsg264
S'expansion_29'
p1160
sg260
g1156
sg276
Nsg277
(lp1161
(I22
S"NonTerminal(TERM_0) ->  Terminal(Operator('/', 'div')) NonTerminal(FACTOR) NonTerminal(TERM_0) : expansion_29"
tp1162
asg280
g1160
sg281
I1
sbsg282
(lp1163
g121
a(iaperiot.cfgs
NonTerminal
p1164
(dp1165
g10
g65
sba(iaperiot.cfgs
NonTerminal
p1166
(dp1167
g10
g113
sbasg284
(iaperiot.cfgs
NonTerminal
p1168
(dp1169
g10
g113
sbsba(iaperiot.cfgs
Rule
p1170
(dp1171
g240
(iaperiot.cfgs
PlamRuleAction
p1172
(dp1173
g243
(iaperiot.plambda.plambda_ast
LambdaAbstraction
p1174
(dp1175
g243
(iaperiot.plambda.plambda_ast
LambdaAbstraction
p1176
(dp1177
g243
(iaperiot.plambda.plambda_ast
LambdaAbstraction
p1178
(dp1179
g243
(iaperiot.plambda.plambda_ast
Application
p1180
(dp1181
g250
(iaperiot.plambda.plambda_ast
LambdaAbstraction
p1182
(dp1183
g243
(iaperiot.plambda.plambda_ast
Constant
p1184
(dp1185
g24
S'[x0]'
p1186
sbsg256
(lp1187
S'x0'
p1188
asbsg260
(lp1189
(iaperiot.plambda.plambda_ast
Application
p1190
(dp1191
g250
(iaperiot.plambda.plambda_ast
LambdaAbstraction
p1192
(dp1193
g243
g806
sg256
g809
sbsg260
(lp1194
(iaperiot.plambda.plambda_ast
Variable
p1195
(dp1196
g264
S'z23'
p1197
sba(iaperiot.plambda.plambda_ast
Variable
p1198
(dp1199
g264
S'z24'
p1200
sba(iaperiot.plambda.plambda_ast
Variable
p1201
(dp1202
g264
g268
sbasbasbsg256
(lp1203
g1197
asbsg256
(lp1204
g1200
asbsg256
(lp1205
g268
asbsg271
(iaperiot.plambda.plambda_ast
LambdaAbstraction
p1206
(dp1207
g243
g1174
sg256
(lp1208
sbsg264
S'list_11_17_27'
p1209
sg260
g1208
sg276
Nsg277
(lp1210
(I23
S'NonTerminal(LIST_11_17_27) ->  EmptyStringSymbol : list_11_17_27'
tp1211
asg280
g1209
sg281
I1
sbsg282
(lp1212
g140
asg284
(iaperiot.cfgs
NonTerminal
p1213
(dp1214
g10
g132
sbsba(iaperiot.cfgs
Rule
p1215
(dp1216
g240
(iaperiot.cfgs
PlamRuleAction
p1217
(dp1218
g243
(iaperiot.plambda.plambda_ast
Application
p1219
(dp1220
g250
(iaperiot.plambda.plambda_ast
Variable
p1221
(dp1222
g264
g456
sbsg260
(lp1223
(iaperiot.plambda.plambda_ast
Variable
p1224
(dp1225
g264
g460
sbasbsg271
(iaperiot.plambda.plambda_ast
LambdaAbstraction
p1226
(dp1227
g243
g1219
sg256
(lp1228
g460
ag456
asbsg264
S'new_list_11_17_27_1'
p1229
sg260
g1228
sg276
Nsg277
(lp1230
(I24
S"NonTerminal(LIST_11_17_27) ->  Terminal(Operator(';', 'semicolon')) NonTerminal(LIST_11_17_27_38) : new_list_11_17_27_1"
tp1231
asg280
g1229
sg281
I1
sbsg282
(lp1232
g134
a(iaperiot.cfgs
NonTerminal
p1233
(dp1234
g10
g150
sbasg284
(iaperiot.cfgs
NonTerminal
p1235
(dp1236
g10
g132
sbsba(iaperiot.cfgs
Rule
p1237
(dp1238
g240
(iaperiot.cfgs
PlamRuleAction
p1239
(dp1240
g243
(iaperiot.plambda.plambda_ast
Application
p1241
(dp1242
g250
(iaperiot.plambda.plambda_ast
Variable
p1243
(dp1244
g264
g456
sbsg260
(lp1245
(iaperiot.plambda.plambda_ast
Variable
p1246
(dp1247
g264
g460
sbasbsg271
(iaperiot.plambda.plambda_ast
LambdaAbstraction
p1248
(dp1249
g243
g1241
sg256
(lp1250
g460
ag456
asbsg264
S'new_expansion_0'
p1251
sg260
g1250
sg276
Nsg277
(lp1252
(I25
S'NonTerminal(ARG) ->  NonTerminal(CALCULATED) NonTerminal(ARG_1) : new_expansion_0'
tp1253
asg280
g1251
sg281
I1
sbsg282
(lp1254
(iaperiot.cfgs
NonTerminal
p1255
(dp1256
g10
g55
sba(iaperiot.cfgs
NonTerminal
p1257
(dp1258
g10
g100
sbasg284
(iaperiot.cfgs
NonTerminal
p1259
(dp1260
g10
g145
sbsba(iaperiot.cfgs
Rule
p1261
(dp1262
g240
(iaperiot.cfgs
PlamRuleAction
p1263
(dp1264
g243
(iaperiot.plambda.plambda_ast
Application
p1265
(dp1266
g250
(iaperiot.plambda.plambda_ast
LambdaAbstraction
p1267
(dp1268
g243
(iaperiot.plambda.plambda_ast
Constant
p1269
(dp1270
g24
S'x0'
p1271
sbsg256
(lp1272
S'x0'
p1273
asbsg260
(lp1274
(iaperiot.plambda.plambda_ast
Application
p1275
(dp1276
g250
(iaperiot.plambda.plambda_ast
Variable
p1277
(dp1278
g264
S'x2'
p1279
sbsg260
(lp1280
(iaperiot.plambda.plambda_ast
Application
p1281
(dp1282
g250
(iaperiot.plambda.plambda_ast
Variable
p1283
(dp1284
g264
S'x1'
p1285
sbsg260
(lp1286
(iaperiot.plambda.plambda_ast
Variable
p1287
(dp1288
g264
S'x0'
p1289
sbasbasbasbsg271
(iaperiot.plambda.plambda_ast
LambdaAbstraction
p1290
(dp1291
g243
g1265
sg256
(lp1292
S'x0'
p1293
aS'x1'
p1294
aS'x2'
p1295
asbsg264
S'expansion_58'
p1296
sg260
g1292
sg276
Nsg277
(lp1297
(I26
S'NonTerminal(ARG) ->  NonTerminal(FACTOR) NonTerminal(TERM_0) NonTerminal(EXPR_3) : expansion_58'
tp1298
asg280
g1296
sg281
I1
sbsg282
(lp1299
(iaperiot.cfgs
NonTerminal
p1300
(dp1301
g10
g65
sba(iaperiot.cfgs
NonTerminal
p1302
(dp1303
g10
g113
sba(iaperiot.cfgs
NonTerminal
p1304
(dp1305
g10
g157
sbasg284
(iaperiot.cfgs
NonTerminal
p1306
(dp1307
g10
g145
sbsba(iaperiot.cfgs
Rule
p1308
(dp1309
g240
(iaperiot.cfgs
PlamRuleAction
p1310
(dp1311
g243
(iaperiot.plambda.plambda_ast
LambdaAbstraction
p1312
(dp1313
g243
(iaperiot.plambda.plambda_ast
Application
p1314
(dp1315
g250
(iaperiot.plambda.plambda_ast
LambdaAbstraction
p1316
(dp1317
g243
(iaperiot.plambda.plambda_ast
Constant
p1318
(dp1319
g24
S'x0'
p1320
sbsg256
(lp1321
S'x0'
p1322
asbsg260
(lp1323
(iaperiot.plambda.plambda_ast
Variable
p1324
(dp1325
g264
g268
sbasbsg256
(lp1326
g268
asbsg271
(iaperiot.plambda.plambda_ast
LambdaAbstraction
p1327
(dp1328
g243
g1312
sg256
(lp1329
sbsg264
S'expr_3'
p1330
sg260
g1329
sg276
Nsg277
(lp1331
(I27
S'NonTerminal(EXPR_3) ->  EmptyStringSymbol : expr_3'
tp1332
asg280
g1330
sg281
I1
sbsg282
(lp1333
g167
asg284
(iaperiot.cfgs
NonTerminal
p1334
(dp1335
g10
g157
sbsba(iaperiot.cfgs
Rule
p1336
(dp1337
g240
(iaperiot.cfgs
PlamRuleAction
p1338
(dp1339
g243
(iaperiot.plambda.plambda_ast
LambdaAbstraction
p1340
(dp1341
g243
(iaperiot.plambda.plambda_ast
Application
p1342
(dp1343
g250
(iaperiot.plambda.plambda_ast
LambdaAbstraction
p1344
(dp1345
g243
(iaperiot.plambda.plambda_ast
Constant
p1346
(dp1347
g24
S"['+',x0,x2]"
p1348
sbsg256
(lp1349
S'x0'
p1350
aS'x1'
p1351
aS'x2'
p1352
asbsg260
(lp1353
(iaperiot.plambda.plambda_ast
Variable
p1354
(dp1355
g264
S'z30'
p1356
sba(iaperiot.plambda.plambda_ast
Variable
p1357
(dp1358
g264
S'x0'
p1359
sba(iaperiot.plambda.plambda_ast
Application
p1360
(dp1361
g250
(iaperiot.plambda.plambda_ast
Variable
p1362
(dp1363
g264
S'x3'
p1364
sbsg260
(lp1365
(iaperiot.plambda.plambda_ast
Application
p1366
(dp1367
g250
(iaperiot.plambda.plambda_ast
Variable
p1368
(dp1369
g264
S'x2'
p1370
sbsg260
(lp1371
(iaperiot.plambda.plambda_ast
Variable
p1372
(dp1373
g264
S'x1'
p1374
sbasbasbasbsg256
(lp1375
g1356
asbsg271
(iaperiot.plambda.plambda_ast
LambdaAbstraction
p1376
(dp1377
g243
g1340
sg256
(lp1378
S'x0'
p1379
aS'x1'
p1380
aS'x2'
p1381
aS'x3'
p1382
asbsg264
S'expansion_27'
p1383
sg260
g1378
sg276
Nsg277
(lp1384
(I28
S"NonTerminal(EXPR_3) ->  Terminal(Operator('+', 'plus')) NonTerminal(FACTOR) NonTerminal(TERM_0) NonTerminal(EXPR_3) : expansion_27"
tp1385
asg280
g1383
sg281
I1
sbsg282
(lp1386
g159
a(iaperiot.cfgs
NonTerminal
p1387
(dp1388
g10
g65
sba(iaperiot.cfgs
NonTerminal
p1389
(dp1390
g10
g113
sba(iaperiot.cfgs
NonTerminal
p1391
(dp1392
g10
g157
sbasg284
(iaperiot.cfgs
NonTerminal
p1393
(dp1394
g10
g157
sbsba(iaperiot.cfgs
Rule
p1395
(dp1396
g240
(iaperiot.cfgs
PlamRuleAction
p1397
(dp1398
g243
(iaperiot.plambda.plambda_ast
LambdaAbstraction
p1399
(dp1400
g243
(iaperiot.plambda.plambda_ast
Application
p1401
(dp1402
g250
(iaperiot.plambda.plambda_ast
LambdaAbstraction
p1403
(dp1404
g243
(iaperiot.plambda.plambda_ast
Constant
p1405
(dp1406
g24
S"['-',x0,x2]"
p1407
sbsg256
(lp1408
S'x0'
p1409
aS'x1'
p1410
aS'x2'
p1411
asbsg260
(lp1412
(iaperiot.plambda.plambda_ast
Variable
p1413
(dp1414
g264
S'z31'
p1415
sba(iaperiot.plambda.plambda_ast
Variable
p1416
(dp1417
g264
S'x0'
p1418
sba(iaperiot.plambda.plambda_ast
Application
p1419
(dp1420
g250
(iaperiot.plambda.plambda_ast
Variable
p1421
(dp1422
g264
S'x3'
p1423
sbsg260
(lp1424
(iaperiot.plambda.plambda_ast
Application
p1425
(dp1426
g250
(iaperiot.plambda.plambda_ast
Variable
p1427
(dp1428
g264
S'x2'
p1429
sbsg260
(lp1430
(iaperiot.plambda.plambda_ast
Variable
p1431
(dp1432
g264
S'x1'
p1433
sbasbasbasbsg256
(lp1434
g1415
asbsg271
(iaperiot.plambda.plambda_ast
LambdaAbstraction
p1435
(dp1436
g243
g1399
sg256
(lp1437
S'x0'
p1438
aS'x1'
p1439
aS'x2'
p1440
aS'x3'
p1441
asbsg264
S'expansion_28'
p1442
sg260
g1437
sg276
Nsg277
(lp1443
(I29
S"NonTerminal(EXPR_3) ->  Terminal(Operator('-', 'minus')) NonTerminal(FACTOR) NonTerminal(TERM_0) NonTerminal(EXPR_3) : expansion_28"
tp1444
asg280
g1442
sg281
I1
sbsg282
(lp1445
g165
a(iaperiot.cfgs
NonTerminal
p1446
(dp1447
g10
g65
sba(iaperiot.cfgs
NonTerminal
p1448
(dp1449
g10
g113
sba(iaperiot.cfgs
NonTerminal
p1450
(dp1451
g10
g157
sbasg284
(iaperiot.cfgs
NonTerminal
p1452
(dp1453
g10
g157
sbsbasS'efac'
p1454
I58
sS'non_terminals'
p1455
(iaperiot.cfgs
SymbolSet
p1456
(dp1457
S'the_set'
p1458
g12
((lp1459
g8
ag40
ag53
ag143
ag82
ag89
ag155
ag111
ag130
ag63
ag148
ag98
atRp1460
sbsS'terminals'
p1461
(iaperiot.cfgs
SymbolSet
p1462
(dp1463
g1458
g12
((lp1464
g115
ag102
ag93
ag594
ag14
ag159
ag75
ag331
ag44
ag121
ag947
ag134
ag72
ag442
atRp1465
sbsS'all_names'
p1466
(lp1467
sS'original_actions'
p1468
(dp1469
sS'composite_rule_table_with_templates'
p1470
(dp1471
S'TERM'
p1472
(lp1473
((lp1474
g65
aS'$1'
p1475
tp1476
a((lp1477
g65
ag117
ag1472
aS"['*',$1,$3]"
tp1478
a((lp1479
g65
ag123
ag1472
aS"['/',$1,$3]"
tp1480
asS'ASSIGNMENT'
p1481
(lp1482
((lp1483
g59
ag949
aS'EXPR'
p1484
aS'[$1,$3]'
tp1485
asg55
(lp1486
((lp1487
g29
ag59
aS"parse_cellref(['cellref','ABS',$2.symbolic_name])"
tp1488
a((lp1489
g59
ag29
ag71
aS"parse_cellref(['cellref',$1.symbolic_name,'ABS',str(int($3))])"
tp1490
a((lp1491
g29
ag59
ag29
ag71
aS"parse_cellref(['cellref','ABS',$2.symbolic_name,'ABS',str(int($4))])"
tp1492
a((lp1493
g59
aS"parse_cellref(['cellref',$1.symbolic_name])"
tp1494
a((lp1495
g59
ag16
aS'ARGLIST'
p1496
ag596
aS"['funcall',$1.symbolic_name,$3]"
tp1497
asg65
(lp1498
((lp1499
g71
aS'$1.val()'
tp1500
a((lp1501
g16
ag1484
ag596
aS"['group',$2]"
tp1502
a((lp1503
g77
ag65
aS'-$2'
tp1504
a((lp1505
g55
ag1475
tp1506
a((lp1507
g74
aS"[ 'string', $1]"
tp1508
asg84
(lp1509
((lp1510
g1481
aS'[$1]'
p1511
tp1512
a((lp1513
g1481
ag136
ag84
aS'[$1]+$3'
p1514
tp1515
a((lp1516
g1481
ag136
ag1511
tp1517
asg1484
(lp1518
((lp1519
g1472
ag1475
tp1520
a((lp1521
g1472
ag161
ag1484
aS"['+',$1,$3]"
tp1522
a((lp1523
g1472
ag77
ag1484
aS"['-',$1,$3]"
tp1524
asS'MULRANGE'
p1525
(lp1526
((lp1527
S'RANGE'
p1528
ag46
ag1528
aS"['mulrange',$1,$3]"
tp1529
asg1528
(lp1530
((lp1531
g55
ag104
ag55
aS"['range',$1,$3]"
tp1532
asg145
(lp1533
((lp1534
g1528
ag1475
tp1535
a((lp1536
g1484
ag1475
tp1537
a((lp1538
g55
ag1475
tp1539
asg1496
(lp1540
((lp1541
g145
ag46
ag1496
ag1514
tp1542
a((lp1543
g145
ag1511
tp1544
assS'modules_to_import'
p1545
(lp1546
S'StupidSheet.backend.cellutils'
p1547
asS'ind_gen'
p1548
(iposse_tools.utils
IndexedNameGenerator
p1549
(dp1550
S'names_to_avoid'
p1551
(dp1552
sS'last_index'
p1553
I0
sS'base_name'
p1554
S'S'
sbsS'start'
p1555
(iaperiot.cfgs
NonTerminal
p1556
(dp1557
g10
g84
sbsS'name_gen'
p1558
(iposse_tools.utils
NameGenerator
p1559
(dp1560
g1551
(dp1561
S'EXPR_3_18'
p1562
NsS'EXPR_3_19'
p1563
NsS'TERM_0_20_30'
p1564
NsS'EXPR_3_18_25'
p1565
NsS'FACTOR_10'
p1566
Nsg91
NsS'EXPR_3_19_26'
p1567
NsS'CALCULATED_5_13'
p1568
NsS'TERM_0_21_28'
p1569
Nsg132
NsS'CALCULATED_5_14'
p1570
NsS'FACTOR_7_23_34'
p1571
Nsg1472
Nsg42
Nsg1484
Nsg55
NsS'TERM_0_21'
p1572
NsS'TERM_0_20'
p1573
NsS'ARGLIST_12_16'
p1574
NsS'CALCULATED_4_15_29'
p1575
NsS'FACTOR_7_23'
p1576
Nsg1496
NsS'CALCULATED_5_13_31'
p1577
NsS'FACTOR_8_22'
p1578
Nsg11
NsS'CALCULATED_4'
p1579
NsS'CALCULATED_5_14_33_37'
p1580
Nsg65
NsS'CALCULATED_5_14_33'
p1581
NsS'FACTOR_8'
p1582
NsS'FACTOR_9'
p1583
NsS'FACTOR_6'
p1584
NsS'FACTOR_7'
p1585
Nsg150
NsS'ARGLIST_12_16_32'
p1586
NsS'CALCULATED_4_15_29_36'
p1587
NsS'LIST_11_17'
p1588
Nsg84
Nsg100
Nsg113
Nsg145
NsS'ARG_1_24'
p1589
NsS'LIST_11'
p1590
NsS'ARG_1_24_35'
p1591
Nsg157
NsS'ARG_2'
p1592
Nssg1553
I40
sg1554
S'S'
sbsS'composite_rule_table_with_actions'
p1593
(dp1594
g91
(lp1595
((lg241
tp1596
a((lp1597
g29
ag71
ag289
tp1598
asg42
(lp1599
((lp1600
g46
ag145
ag42
ag337
tp1601
a((lg387
tp1602
asg55
(lp1603
((lp1604
g29
ag59
ag91
ag415
tp1605
a((lp1606
g59
ag11
ag450
tp1607
asg11
(lp1608
((lp1609
g29
ag71
ag474
tp1610
a((lg515
tp1611
a((lp1612
g16
ag145
ag42
ag596
ag543
tp1613
asg65
(lp1614
((lp1615
g71
ag604
tp1616
a((lp1617
g16
ag65
ag113
ag157
ag596
ag631
tp1618
a((lp1619
g77
ag65
ag690
tp1620
a((lp1621
g55
ag724
tp1622
a((lp1623
g74
ag753
tp1624
asg150
(lp1625
((lp1626
g84
ag780
tp1627
a((lg847
tp1628
asg84
(lp1629
((lp1630
g59
ag949
ag65
ag113
ag157
ag132
ag899
tp1631
asg100
(lp1632
((lp1633
g104
ag55
ag965
tp1634
a((lg1016
tp1635
asg113
(lp1636
((lg1044
tp1637
a((lp1638
g117
ag65
ag113
ag1072
tp1639
a((lp1640
g123
ag65
ag113
ag1122
tp1641
asg132
(lp1642
((lg1172
tp1643
a((lp1644
g136
ag150
ag1217
tp1645
asg145
(lp1646
((lp1647
g55
ag100
ag1239
tp1648
a((lp1649
g65
ag113
ag157
ag1263
tp1650
asg157
(lp1651
((lg1310
tp1652
a((lp1653
g161
ag65
ag113
ag157
ag1338
tp1654
a((lp1655
g77
ag65
ag113
ag157
ag1397
tp1656
assS'actions_table'
p1657
(dp1658
g535
g515
sg837
g780
sg1064
g1044
sg407
g387
sg1229
g1217
sg438
g415
sg743
g724
sg623
g604
sg586
g543
sg714
g690
sg674
g631
sg375
g337
sg1209
g1172
sg1251
g1239
sg1036
g1016
sg464
g450
sg772
g753
sg1296
g1263
sg943
g899
sg1006
g965
sg327
g289
sg275
g241
sg1442
g1397
sg1160
g1122
sg1383
g1338
sg505
g474
sg1110
g1072
sg1330
g1310
sg891
g847
ssS'normalized'
p1659
I01
sbsS'col_size'
p1660
I15
sS'follow_sets'
p1661
(dp1662
g8
g12
((lp1663
g684
ag159
ag115
ag165
ag44
ag121
ag134
ag102
a(iaperiot.cfgs
EmptyString
p1664
(dp1665
g10
g35
sbatRp1666
sg40
g12
((lp1667
g594
a(iaperiot.cfgs
EmptyString
p1668
(dp1669
g10
g35
sbatRp1670
sg53
g12
((lp1671
(iaperiot.cfgs
EmptyString
p1672
(dp1673
g10
g35
sbag684
ag159
ag115
ag165
ag44
ag121
ag134
ag102
atRp1674
sg63
g12
((lp1675
g684
ag159
ag115
ag165
ag44
ag121
ag134
a(iaperiot.cfgs
EmptyString
p1676
(dp1677
g10
g35
sbatRp1678
sg82
g12
((lp1679
(iaperiot.cfgs
EmptyString
p1680
(dp1681
g10
g35
sbatRp1682
sg89
g12
((lp1683
g684
ag159
ag115
ag165
ag44
ag121
ag134
ag102
a(iaperiot.cfgs
EmptyString
p1684
(dp1685
g10
g35
sbatRp1686
sg98
g12
((lp1687
g594
ag44
a(iaperiot.cfgs
EmptyString
p1688
(dp1689
g10
g35
sbatRp1690
sg111
g12
((lp1691
g44
ag684
ag159
ag165
ag134
a(iaperiot.cfgs
EmptyString
p1692
(dp1693
g10
g35
sbatRp1694
sg130
g12
((lp1695
(iaperiot.cfgs
EmptyString
p1696
(dp1697
g10
g35
sbatRp1698
sg143
g12
((lp1699
g594
ag44
a(iaperiot.cfgs
EmptyString
p1700
(dp1701
g10
g35
sbatRp1702
sg148
g12
((lp1703
(iaperiot.cfgs
EmptyString
p1704
(dp1705
g10
g35
sbatRp1706
sg155
g12
((lp1707
g684
ag134
ag44
a(iaperiot.cfgs
EmptyString
p1708
(dp1709
g10
g35
sbatRp1710
ssg3
(dp1711
g8
(dp1712
g29
I6
sg596
I7
sg16
I8
sg161
I7
sg117
I7
sg77
I7
sg46
I7
sg123
I7
sg74
Nsg59
Nsg71
Nsg104
I7
sg949
Nsg136
I7
sg35
I7
ssg40
(dp1713
g29
Nsg596
I3
sg16
Nsg161
Nsg117
Nsg77
Nsg46
I2
sg123
Nsg74
Nsg59
Nsg71
Nsg104
Nsg949
Nsg136
Nsg35
I3
ssg53
(dp1714
g29
I4
sg596
Nsg16
Nsg161
Nsg117
Nsg77
Nsg46
Nsg123
Nsg74
Nsg59
I5
sg71
Nsg104
Nsg949
Nsg136
Nsg35
Nssg63
(dp1715
g29
I12
sg596
Nsg16
I10
sg161
Nsg117
Nsg77
I11
sg46
Nsg123
Nsg74
I13
sg59
I12
sg71
I9
sg104
Nsg949
Nsg136
Nsg35
Nssg82
(dp1716
g29
Nsg596
Nsg16
Nsg161
Nsg117
Nsg77
Nsg46
Nsg123
Nsg74
Nsg59
I16
sg71
Nsg104
Nsg949
Nsg136
Nsg35
Nssg89
(dp1717
g29
I1
sg596
I0
sg16
Nsg161
I0
sg117
I0
sg77
I0
sg46
I0
sg123
I0
sg74
Nsg59
Nsg71
Nsg104
I0
sg949
Nsg136
I0
sg35
I0
ssg98
(dp1718
g29
Nsg596
I18
sg16
Nsg161
Nsg117
Nsg77
Nsg46
I18
sg123
Nsg74
Nsg59
Nsg71
Nsg104
I17
sg949
Nsg136
Nsg35
I18
ssg111
(dp1719
g29
Nsg596
I19
sg16
Nsg161
I19
sg117
I20
sg77
I19
sg46
I19
sg123
I21
sg74
Nsg59
Nsg71
Nsg104
Nsg949
Nsg136
I19
sg35
I19
ssg130
(dp1720
g29
Nsg596
Nsg16
Nsg161
Nsg117
Nsg77
Nsg46
Nsg123
Nsg74
Nsg59
Nsg71
Nsg104
Nsg949
Nsg136
I23
sg35
I22
ssg143
(dp1721
g29
I24
sg596
Nsg16
I25
sg161
Nsg117
Nsg77
I25
sg46
Nsg123
Nsg74
I25
sg59
I24
sg71
I25
sg104
Nsg949
Nsg136
Nsg35
Nssg148
(dp1722
g29
Nsg596
Nsg16
Nsg161
Nsg117
Nsg77
Nsg46
Nsg123
Nsg74
Nsg59
I14
sg71
Nsg104
Nsg949
Nsg136
Nsg35
I15
ssg155
(dp1723
g29
Nsg596
I26
sg16
Nsg161
I27
sg117
Nsg77
I28
sg46
I26
sg123
Nsg74
Nsg59
Nsg71
Nsg104
Nsg949
Nsg136
I26
sg35
I26
sssS'word_first_sets'
p1724
g171
sbsS'lexer'
p1725
(iaperiot.lexer
Lexer
p1726
(dp1727
S'trie'
p1728
(iposse_tools.tries
Trie
p1729
(dp1730
S'pointer'
p1731
(lp1732
I0
a(dp1733
S'$'
(lp1734
I1
a(dp1735
ag29
asS')'
(lp1736
I9
a(dp1737
ag596
asS'('
(lp1738
I6
a(dp1739
ag16
asS'+'
(lp1740
I8
a(dp1741
ag161
asS'*'
(lp1742
I11
a(dp1743
ag117
asS'-'
(lp1744
I7
a(dp1745
ag77
asS','
(lp1746
I3
a(dp1747
ag46
asS'/'
(lp1748
I4
a(dp1749
ag123
asS';'
(lp1750
I10
a(dp1751
ag136
asS':'
(lp1752
I2
a(dp1753
ag104
asS'='
(lp1754
I5
a(dp1755
ag949
asaNasS'counter'
p1756
I11
sS'root'
p1757
g1732
sS'strings'
p1758
(dp1759
sbsS'string_indicator'
p1760
S'"'
sg22
I0
sS'tokens'
p1761
(lp1762
g29
ag104
ag46
ag123
ag949
ag16
ag77
ag161
ag596
ag136
ag117
asS'tab_size'
p1763
I4
sS'comment_indicator'
p1764
S'#'
sS'yield_newlines'
p1765
I00
sS'yield_indents'
p1766
I00
sbsS'rule_actions_module'
p1767
Nsg231
g232
sb.